	.text
	.file	"2zwimiruy841soys"
	.section	".text._ZN42_$LT$$RF$T$u20$as$u20$core..fmt..Debug$GT$3fmt17h8ebeec7a45ff44c9E","ax",@progbits
	.globl	_ZN42_$LT$$RF$T$u20$as$u20$core..fmt..Debug$GT$3fmt17h8ebeec7a45ff44c9E
	.p2align	4, 0x90
	.type	_ZN42_$LT$$RF$T$u20$as$u20$core..fmt..Debug$GT$3fmt17h8ebeec7a45ff44c9E,@function
_ZN42_$LT$$RF$T$u20$as$u20$core..fmt..Debug$GT$3fmt17h8ebeec7a45ff44c9E:
.Lfunc_begin0:
	.file	1 "/rustc/cb121987158d69bb894ba1bcc21dc45d1e0a488f/library/core/src/fmt/mod.rs"
	.loc	1 2134 0
	.cfi_startproc
	subq	$24, %rsp
	.cfi_def_cfa_offset 32
	movq	%rdi, 8(%rsp)
	movq	%rsi, 16(%rsp)
.Ltmp0:
	.loc	1 2134 71 prologue_end
	movq	(%rdi), %rdi
	.loc	1 2134 62 is_stmt 0
	callq	*_ZN41_$LT$char$u20$as$u20$core..fmt..Debug$GT$3fmt17hcfdea077ef69cb0cE@GOTPCREL(%rip)
	movb	%al, 7(%rsp)
	.loc	1 0 62
	movb	7(%rsp), %al
	.loc	1 2134 84
	andb	$1, %al
	movzbl	%al, %eax
	addq	$24, %rsp
	.cfi_def_cfa_offset 8
	retq
.Ltmp1:
.Lfunc_end0:
	.size	_ZN42_$LT$$RF$T$u20$as$u20$core..fmt..Debug$GT$3fmt17h8ebeec7a45ff44c9E, .Lfunc_end0-_ZN42_$LT$$RF$T$u20$as$u20$core..fmt..Debug$GT$3fmt17h8ebeec7a45ff44c9E
	.cfi_endproc

	.section	".text._ZN42_$LT$$RF$T$u20$as$u20$core..fmt..Debug$GT$3fmt17hd83e5ae26767a2ecE","ax",@progbits
	.globl	_ZN42_$LT$$RF$T$u20$as$u20$core..fmt..Debug$GT$3fmt17hd83e5ae26767a2ecE
	.p2align	4, 0x90
	.type	_ZN42_$LT$$RF$T$u20$as$u20$core..fmt..Debug$GT$3fmt17hd83e5ae26767a2ecE,@function
_ZN42_$LT$$RF$T$u20$as$u20$core..fmt..Debug$GT$3fmt17hd83e5ae26767a2ecE:
.Lfunc_begin1:
	.loc	1 2134 0 is_stmt 1
	.cfi_startproc
	subq	$24, %rsp
	.cfi_def_cfa_offset 32
	movq	%rdi, 8(%rsp)
	movq	%rsi, 16(%rsp)
.Ltmp2:
	.loc	1 2134 71 prologue_end
	movq	(%rdi), %rdi
	.loc	1 2134 62 is_stmt 0
	callq	_ZN4core3fmt3num52_$LT$impl$u20$core..fmt..Debug$u20$for$u20$usize$GT$3fmt17ha7b085304bbcd552E
	movb	%al, 7(%rsp)
	.loc	1 0 62
	movb	7(%rsp), %al
	.loc	1 2134 84
	andb	$1, %al
	movzbl	%al, %eax
	addq	$24, %rsp
	.cfi_def_cfa_offset 8
	retq
.Ltmp3:
.Lfunc_end1:
	.size	_ZN42_$LT$$RF$T$u20$as$u20$core..fmt..Debug$GT$3fmt17hd83e5ae26767a2ecE, .Lfunc_end1-_ZN42_$LT$$RF$T$u20$as$u20$core..fmt..Debug$GT$3fmt17hd83e5ae26767a2ecE
	.cfi_endproc

	.section	.text._ZN4core3fmt10ArgumentV111new_display17h37ca8165f1c5980fE,"ax",@progbits
	.globl	_ZN4core3fmt10ArgumentV111new_display17h37ca8165f1c5980fE
	.p2align	4, 0x90
	.type	_ZN4core3fmt10ArgumentV111new_display17h37ca8165f1c5980fE,@function
_ZN4core3fmt10ArgumentV111new_display17h37ca8165f1c5980fE:
.Lfunc_begin2:
	.loc	1 317 0 is_stmt 1
	.cfi_startproc
	subq	$24, %rsp
	.cfi_def_cfa_offset 32
	movq	%rdi, 16(%rsp)
.Ltmp4:
	.loc	1 318 13 prologue_end
	movq	_ZN43_$LT$char$u20$as$u20$core..fmt..Display$GT$3fmt17he9b44a36b307e7c2E@GOTPCREL(%rip), %rsi
	callq	*_ZN4core3fmt10ArgumentV13new17hb2cfcab83855514eE@GOTPCREL(%rip)
	movq	%rax, (%rsp)
	movq	%rdx, 8(%rsp)
	.loc	1 0 13 is_stmt 0
	movq	8(%rsp), %rdx
	movq	(%rsp), %rax
	.loc	1 319 10 is_stmt 1
	addq	$24, %rsp
	.cfi_def_cfa_offset 8
	retq
.Ltmp5:
.Lfunc_end2:
	.size	_ZN4core3fmt10ArgumentV111new_display17h37ca8165f1c5980fE, .Lfunc_end2-_ZN4core3fmt10ArgumentV111new_display17h37ca8165f1c5980fE
	.cfi_endproc

	.section	.text._ZN4core3fmt10ArgumentV111new_display17h72dd1873a91a4424E,"ax",@progbits
	.globl	_ZN4core3fmt10ArgumentV111new_display17h72dd1873a91a4424E
	.p2align	4, 0x90
	.type	_ZN4core3fmt10ArgumentV111new_display17h72dd1873a91a4424E,@function
_ZN4core3fmt10ArgumentV111new_display17h72dd1873a91a4424E:
.Lfunc_begin3:
	.loc	1 317 0
	.cfi_startproc
	subq	$24, %rsp
	.cfi_def_cfa_offset 32
	movq	%rdi, 16(%rsp)
.Ltmp6:
	.loc	1 318 13 prologue_end
	movq	_ZN4core3fmt3num3imp54_$LT$impl$u20$core..fmt..Display$u20$for$u20$usize$GT$3fmt17ha635c16b1458696dE@GOTPCREL(%rip), %rsi
	callq	*_ZN4core3fmt10ArgumentV13new17h1da49da530c7c862E@GOTPCREL(%rip)
	movq	%rax, (%rsp)
	movq	%rdx, 8(%rsp)
	.loc	1 0 13 is_stmt 0
	movq	8(%rsp), %rdx
	movq	(%rsp), %rax
	.loc	1 319 10 is_stmt 1
	addq	$24, %rsp
	.cfi_def_cfa_offset 8
	retq
.Ltmp7:
.Lfunc_end3:
	.size	_ZN4core3fmt10ArgumentV111new_display17h72dd1873a91a4424E, .Lfunc_end3-_ZN4core3fmt10ArgumentV111new_display17h72dd1873a91a4424E
	.cfi_endproc

	.section	.text._ZN4core3fmt10ArgumentV13new17h1da49da530c7c862E,"ax",@progbits
	.globl	_ZN4core3fmt10ArgumentV13new17h1da49da530c7c862E
	.p2align	4, 0x90
	.type	_ZN4core3fmt10ArgumentV13new17h1da49da530c7c862E,@function
_ZN4core3fmt10ArgumentV13new17h1da49da530c7c862E:
.Lfunc_begin4:
	.loc	1 327 0
	.cfi_startproc
	subq	$72, %rsp
	.cfi_def_cfa_offset 80
	movq	%rdi, 8(%rsp)
	movq	%rdi, 40(%rsp)
	movq	%rsi, 48(%rsp)
.Ltmp8:
	.loc	1 336 42 prologue_end
	movq	%rsi, 56(%rsp)
	movq	56(%rsp), %rax
	movq	%rax, 16(%rsp)
	.loc	1 0 42 is_stmt 0
	movq	8(%rsp), %rax
	.loc	1 336 68
	movq	%rax, 64(%rsp)
	movq	64(%rsp), %rax
	movq	%rax, (%rsp)
	.loc	1 0 68
	movq	16(%rsp), %rax
	movq	(%rsp), %rcx
	.loc	1 336 18
	movq	%rcx, 24(%rsp)
	movq	%rax, 32(%rsp)
	.loc	1 337 6 is_stmt 1
	movq	24(%rsp), %rax
	movq	32(%rsp), %rdx
	addq	$72, %rsp
	.cfi_def_cfa_offset 8
	retq
.Ltmp9:
.Lfunc_end4:
	.size	_ZN4core3fmt10ArgumentV13new17h1da49da530c7c862E, .Lfunc_end4-_ZN4core3fmt10ArgumentV13new17h1da49da530c7c862E
	.cfi_endproc

	.section	.text._ZN4core3fmt10ArgumentV13new17hb2cfcab83855514eE,"ax",@progbits
	.globl	_ZN4core3fmt10ArgumentV13new17hb2cfcab83855514eE
	.p2align	4, 0x90
	.type	_ZN4core3fmt10ArgumentV13new17hb2cfcab83855514eE,@function
_ZN4core3fmt10ArgumentV13new17hb2cfcab83855514eE:
.Lfunc_begin5:
	.loc	1 327 0
	.cfi_startproc
	subq	$72, %rsp
	.cfi_def_cfa_offset 80
	movq	%rdi, 8(%rsp)
	movq	%rdi, 40(%rsp)
	movq	%rsi, 48(%rsp)
.Ltmp10:
	.loc	1 336 42 prologue_end
	movq	%rsi, 56(%rsp)
	movq	56(%rsp), %rax
	movq	%rax, 16(%rsp)
	.loc	1 0 42 is_stmt 0
	movq	8(%rsp), %rax
	.loc	1 336 68
	movq	%rax, 64(%rsp)
	movq	64(%rsp), %rax
	movq	%rax, (%rsp)
	.loc	1 0 68
	movq	16(%rsp), %rax
	movq	(%rsp), %rcx
	.loc	1 336 18
	movq	%rcx, 24(%rsp)
	movq	%rax, 32(%rsp)
	.loc	1 337 6 is_stmt 1
	movq	24(%rsp), %rax
	movq	32(%rsp), %rdx
	addq	$72, %rsp
	.cfi_def_cfa_offset 8
	retq
.Ltmp11:
.Lfunc_end5:
	.size	_ZN4core3fmt10ArgumentV13new17hb2cfcab83855514eE, .Lfunc_end5-_ZN4core3fmt10ArgumentV13new17hb2cfcab83855514eE
	.cfi_endproc

	.section	".text._ZN4core3fmt3num52_$LT$impl$u20$core..fmt..Debug$u20$for$u20$usize$GT$3fmt17ha7b085304bbcd552E","ax",@progbits
	.p2align	4, 0x90
	.type	_ZN4core3fmt3num52_$LT$impl$u20$core..fmt..Debug$u20$for$u20$usize$GT$3fmt17ha7b085304bbcd552E,@function
_ZN4core3fmt3num52_$LT$impl$u20$core..fmt..Debug$u20$for$u20$usize$GT$3fmt17ha7b085304bbcd552E:
.Lfunc_begin6:
	.file	2 "/rustc/cb121987158d69bb894ba1bcc21dc45d1e0a488f/library/core/src/fmt/num.rs"
	.loc	2 185 0
	.cfi_startproc
	subq	$56, %rsp
	.cfi_def_cfa_offset 64
	movq	%rsi, 8(%rsp)
	movq	%rdi, %rax
	movq	8(%rsp), %rdi
	movq	%rax, 16(%rsp)
	movq	%rdi, 24(%rsp)
	movq	%rax, 40(%rsp)
	movq	%rdi, 48(%rsp)
.Ltmp12:
	.loc	2 186 20 prologue_end
	callq	*_ZN4core3fmt9Formatter15debug_lower_hex17h23abe5b67c145be3E@GOTPCREL(%rip)
	movb	%al, 38(%rsp)
	.loc	2 0 20 is_stmt 0
	movb	38(%rsp), %al
	.loc	2 186 20
	testb	$1, %al
	jne	.LBB6_3
	jmp	.LBB6_2
.LBB6_2:
	.loc	2 0 20
	movq	24(%rsp), %rdi
	.loc	2 188 27 is_stmt 1
	callq	*_ZN4core3fmt9Formatter15debug_upper_hex17h90afad386d050dcaE@GOTPCREL(%rip)
	movb	%al, 7(%rsp)
	jmp	.LBB6_6
.LBB6_3:
	.loc	2 0 27 is_stmt 0
	movq	24(%rsp), %rsi
	movq	16(%rsp), %rdi
	.loc	2 187 21 is_stmt 1
	callq	*_ZN4core3fmt3num55_$LT$impl$u20$core..fmt..LowerHex$u20$for$u20$usize$GT$3fmt17h712d1c0993960ba9E@GOTPCREL(%rip)
	andb	$1, %al
	movb	%al, 39(%rsp)
	.loc	2 186 17
	jmp	.LBB6_5
.LBB6_5:
	.loc	2 193 14
	movb	39(%rsp), %al
	andb	$1, %al
	movzbl	%al, %eax
	addq	$56, %rsp
	.cfi_def_cfa_offset 8
	retq
.LBB6_6:
	.cfi_def_cfa_offset 64
	.loc	2 0 14 is_stmt 0
	movb	7(%rsp), %al
	.loc	2 188 27 is_stmt 1
	testb	$1, %al
	jne	.LBB6_8
	jmp	.LBB6_7
.LBB6_7:
	.loc	2 0 27 is_stmt 0
	movq	24(%rsp), %rsi
	movq	16(%rsp), %rdi
	.loc	2 191 21 is_stmt 1
	callq	*_ZN4core3fmt3num3imp54_$LT$impl$u20$core..fmt..Display$u20$for$u20$usize$GT$3fmt17ha635c16b1458696dE@GOTPCREL(%rip)
	andb	$1, %al
	movb	%al, 39(%rsp)
	jmp	.LBB6_11
.LBB6_8:
	.loc	2 0 21 is_stmt 0
	movq	24(%rsp), %rsi
	movq	16(%rsp), %rdi
	.loc	2 189 21 is_stmt 1
	callq	*_ZN4core3fmt3num55_$LT$impl$u20$core..fmt..UpperHex$u20$for$u20$usize$GT$3fmt17h9cce13f480de920eE@GOTPCREL(%rip)
	andb	$1, %al
	movb	%al, 39(%rsp)
	.loc	2 188 24
	jmp	.LBB6_10
.LBB6_10:
	.loc	2 186 17
	jmp	.LBB6_5
.LBB6_11:
	.loc	2 188 24
	jmp	.LBB6_10
.Ltmp13:
.Lfunc_end6:
	.size	_ZN4core3fmt3num52_$LT$impl$u20$core..fmt..Debug$u20$for$u20$usize$GT$3fmt17ha7b085304bbcd552E, .Lfunc_end6-_ZN4core3fmt3num52_$LT$impl$u20$core..fmt..Debug$u20$for$u20$usize$GT$3fmt17ha7b085304bbcd552E
	.cfi_endproc

	.section	.text._ZN4core3fmt9Arguments6new_v117h6b361a870a97b550E,"ax",@progbits
	.p2align	4, 0x90
	.type	_ZN4core3fmt9Arguments6new_v117h6b361a870a97b550E,@function
_ZN4core3fmt9Arguments6new_v117h6b361a870a97b550E:
.Lfunc_begin7:
	.loc	1 388 0
	.cfi_startproc
	subq	$152, %rsp
	.cfi_def_cfa_offset 160
	movq	%r8, (%rsp)
	movq	%rcx, 8(%rsp)
	movq	%rdx, 16(%rsp)
	movq	%rsi, 24(%rsp)
	movq	%rdi, 32(%rsp)
	movq	%rdi, 40(%rsp)
	movq	%rsi, 120(%rsp)
	movq	%rdx, 128(%rsp)
	movq	%rcx, 136(%rsp)
	movq	%r8, 144(%rsp)
.Ltmp14:
	.loc	1 389 12 prologue_end
	cmpq	%r8, %rdx
	jb	.LBB7_2
	.loc	1 0 12 is_stmt 0
	movq	16(%rsp), %rax
	movq	(%rsp), %rcx
	.loc	1 389 56
	addq	$1, %rcx
	.loc	1 389 41
	cmpq	%rcx, %rax
	seta	%al
	.loc	1 389 12
	andb	$1, %al
	movb	%al, 55(%rsp)
	jmp	.LBB7_3
.LBB7_2:
	movb	$1, 55(%rsp)
.LBB7_3:
	testb	$1, 55(%rsp)
	jne	.LBB7_5
	.loc	1 0 12
	movq	40(%rsp), %rax
	movq	32(%rsp), %rcx
	movq	(%rsp), %rdx
	movq	8(%rsp), %rsi
	movq	16(%rsp), %rdi
	movq	24(%rsp), %r8
	.loc	1 392 34 is_stmt 1
	movq	$0, 104(%rsp)
	.loc	1 392 9 is_stmt 0
	movq	%r8, (%rcx)
	movq	%rdi, 8(%rcx)
	movq	104(%rsp), %r8
	movq	112(%rsp), %rdi
	movq	%r8, 16(%rcx)
	movq	%rdi, 24(%rcx)
	movq	%rsi, 32(%rcx)
	movq	%rdx, 40(%rcx)
	.loc	1 393 6 is_stmt 1
	addq	$152, %rsp
	.cfi_def_cfa_offset 8
	retq
.LBB7_5:
	.cfi_def_cfa_offset 160
	.loc	1 390 13
	leaq	56(%rsp), %rdi
	leaq	.L__unnamed_3(%rip), %rsi
	movl	$1, %edx
	leaq	.L__unnamed_4(%rip), %rcx
	xorl	%eax, %eax
	movl	%eax, %r8d
	callq	_ZN4core3fmt9Arguments6new_v117h6b361a870a97b550E
	leaq	.L__unnamed_5(%rip), %rsi
	movq	_ZN4core9panicking9panic_fmt17hfe413bf5e72d349dE@GOTPCREL(%rip), %rax
	leaq	56(%rsp), %rdi
	callq	*%rax
	ud2
.Ltmp15:
.Lfunc_end7:
	.size	_ZN4core3fmt9Arguments6new_v117h6b361a870a97b550E, .Lfunc_end7-_ZN4core3fmt9Arguments6new_v117h6b361a870a97b550E
	.cfi_endproc

	.section	".text._ZN4core3ptr29drop_in_place$LT$$RF$char$GT$17h5193d7a6c982f78cE","ax",@progbits
	.p2align	4, 0x90
	.type	_ZN4core3ptr29drop_in_place$LT$$RF$char$GT$17h5193d7a6c982f78cE,@function
_ZN4core3ptr29drop_in_place$LT$$RF$char$GT$17h5193d7a6c982f78cE:
.Lfunc_begin8:
	.file	3 "/rustc/cb121987158d69bb894ba1bcc21dc45d1e0a488f/library/core/src/ptr/mod.rs"
	.loc	3 486 0
	.cfi_startproc
	pushq	%rax
	.cfi_def_cfa_offset 16
	movq	%rdi, (%rsp)
.Ltmp16:
	.loc	3 486 1 prologue_end
	popq	%rax
	.cfi_def_cfa_offset 8
	retq
.Ltmp17:
.Lfunc_end8:
	.size	_ZN4core3ptr29drop_in_place$LT$$RF$char$GT$17h5193d7a6c982f78cE, .Lfunc_end8-_ZN4core3ptr29drop_in_place$LT$$RF$char$GT$17h5193d7a6c982f78cE
	.cfi_endproc

	.section	".text._ZN4core3ptr30drop_in_place$LT$$RF$usize$GT$17h3194d10dc037ce94E","ax",@progbits
	.p2align	4, 0x90
	.type	_ZN4core3ptr30drop_in_place$LT$$RF$usize$GT$17h3194d10dc037ce94E,@function
_ZN4core3ptr30drop_in_place$LT$$RF$usize$GT$17h3194d10dc037ce94E:
.Lfunc_begin9:
	.loc	3 486 0
	.cfi_startproc
	pushq	%rax
	.cfi_def_cfa_offset 16
	movq	%rdi, (%rsp)
.Ltmp18:
	.loc	3 486 1 prologue_end
	popq	%rax
	.cfi_def_cfa_offset 8
	retq
.Ltmp19:
.Lfunc_end9:
	.size	_ZN4core3ptr30drop_in_place$LT$$RF$usize$GT$17h3194d10dc037ce94E, .Lfunc_end9-_ZN4core3ptr30drop_in_place$LT$$RF$usize$GT$17h3194d10dc037ce94E
	.cfi_endproc

	.section	".text._ZN68_$LT$rust_base256utf8..DecodeError$u20$as$u20$core..fmt..Display$GT$3fmt17h325f1301a35a27afE","ax",@progbits
	.globl	_ZN68_$LT$rust_base256utf8..DecodeError$u20$as$u20$core..fmt..Display$GT$3fmt17h325f1301a35a27afE
	.p2align	4, 0x90
	.type	_ZN68_$LT$rust_base256utf8..DecodeError$u20$as$u20$core..fmt..Display$GT$3fmt17h325f1301a35a27afE,@function
_ZN68_$LT$rust_base256utf8..DecodeError$u20$as$u20$core..fmt..Display$GT$3fmt17h325f1301a35a27afE:
.Lfunc_begin10:
	.file	4 "/home/mriise/Projects/base256emoji/src/lib.rs"
	.loc	4 11 0
	.cfi_startproc
	subq	$152, %rsp
	.cfi_def_cfa_offset 160
	movq	%rdi, 24(%rsp)
	movq	%rsi, 32(%rsp)
	movq	%rdi, 136(%rsp)
	movq	%rsi, 144(%rsp)
.Ltmp20:
	.loc	4 12 3 prologue_end
	addq	$8, %rdi
	callq	*_ZN4core3fmt10ArgumentV111new_display17h37ca8165f1c5980fE@GOTPCREL(%rip)
	movq	%rax, 40(%rsp)
	movq	%rdx, 48(%rsp)
	.loc	4 0 3 is_stmt 0
	movq	24(%rsp), %rdi
	.loc	4 12 3
	callq	*_ZN4core3fmt10ArgumentV111new_display17h72dd1873a91a4424E@GOTPCREL(%rip)
	movq	%rax, 8(%rsp)
	movq	%rdx, 16(%rsp)
	.loc	4 0 3
	movq	16(%rsp), %rax
	movq	8(%rsp), %rcx
	movq	48(%rsp), %rdx
	movq	40(%rsp), %rsi
	.loc	4 12 3
	movq	%rsi, 104(%rsp)
	movq	%rdx, 112(%rsp)
	movq	%rcx, 120(%rsp)
	movq	%rax, 128(%rsp)
	leaq	104(%rsp), %rcx
	leaq	56(%rsp), %rdi
	leaq	.L__unnamed_6(%rip), %rsi
	movl	$3, %edx
	movl	$2, %r8d
	callq	_ZN4core3fmt9Arguments6new_v117h6b361a870a97b550E
	.loc	4 0 3
	movq	32(%rsp), %rdi
	.loc	4 12 3
	leaq	56(%rsp), %rsi
	callq	*_ZN4core3fmt9Formatter9write_fmt17ha52bb4ddc2740606E@GOTPCREL(%rip)
	movb	%al, 7(%rsp)
	.loc	4 0 3
	movb	7(%rsp), %al
	.loc	4 17 3 is_stmt 1
	andb	$1, %al
	movzbl	%al, %eax
	addq	$152, %rsp
	.cfi_def_cfa_offset 8
	retq
.Ltmp21:
.Lfunc_end10:
	.size	_ZN68_$LT$rust_base256utf8..DecodeError$u20$as$u20$core..fmt..Display$GT$3fmt17h325f1301a35a27afE, .Lfunc_end10-_ZN68_$LT$rust_base256utf8..DecodeError$u20$as$u20$core..fmt..Display$GT$3fmt17h325f1301a35a27afE
	.cfi_endproc

	.section	".text._ZN66_$LT$rust_base256utf8..DecodeError$u20$as$u20$core..fmt..Debug$GT$3fmt17h3319b6f230a68b33E","ax",@progbits
	.globl	_ZN66_$LT$rust_base256utf8..DecodeError$u20$as$u20$core..fmt..Debug$GT$3fmt17h3319b6f230a68b33E
	.p2align	4, 0x90
	.type	_ZN66_$LT$rust_base256utf8..DecodeError$u20$as$u20$core..fmt..Debug$GT$3fmt17h3319b6f230a68b33E,@function
_ZN66_$LT$rust_base256utf8..DecodeError$u20$as$u20$core..fmt..Debug$GT$3fmt17h3319b6f230a68b33E:
.Lfunc_begin11:
	.loc	4 4 0
	.cfi_startproc
	subq	$104, %rsp
	.cfi_def_cfa_offset 112
	movq	%rdi, 64(%rsp)
	movq	%rsi, 72(%rsp)
.Ltmp22:
	.loc	4 6 2 prologue_end
	movq	%rdi, %rax
	addq	$8, %rax
	movq	%rax, 16(%rsp)
	movq	%rax, 80(%rsp)
	movq	%rdi, 24(%rsp)
	.loc	4 7 2
	movq	%rdi, 88(%rsp)
.Ltmp23:
	.loc	4 4 10
	leaq	32(%rsp), %rdi
	leaq	.L__unnamed_7(%rip), %rdx
	movl	$11, %ecx
	callq	*_ZN4core3fmt9Formatter12debug_struct17h20b9323f39fe0843E@GOTPCREL(%rip)
	.loc	4 0 10 is_stmt 0
	movq	16(%rsp), %rax
	.loc	4 4 10
	leaq	32(%rsp), %rcx
	movq	%rcx, 96(%rsp)
.Ltmp24:
	.loc	4 6 2 is_stmt 1
	movq	%rax, 48(%rsp)
	leaq	48(%rsp), %rcx
	.loc	4 4 10
	leaq	32(%rsp), %rdi
	leaq	.L__unnamed_8(%rip), %rsi
	movl	$9, %edx
	leaq	.L__unnamed_1(%rip), %r8
	callq	*_ZN4core3fmt8builders11DebugStruct5field17hdafb0b643486ee3fE@GOTPCREL(%rip)
	.loc	4 0 10 is_stmt 0
	movq	24(%rsp), %rax
	.loc	4 7 2 is_stmt 1
	movq	%rax, 56(%rsp)
	leaq	56(%rsp), %rcx
	.loc	4 4 10
	leaq	32(%rsp), %rdi
	leaq	.L__unnamed_9(%rip), %rsi
	movl	$5, %edx
	leaq	.L__unnamed_2(%rip), %r8
	callq	*_ZN4core3fmt8builders11DebugStruct5field17hdafb0b643486ee3fE@GOTPCREL(%rip)
	leaq	32(%rsp), %rdi
	callq	*_ZN4core3fmt8builders11DebugStruct6finish17h3b9d0dfb8c7c1da7E@GOTPCREL(%rip)
	movb	%al, 15(%rsp)
.Ltmp25:
	.loc	4 0 10 is_stmt 0
	movb	15(%rsp), %al
	.loc	4 4 15
	andb	$1, %al
	movzbl	%al, %eax
	addq	$104, %rsp
	.cfi_def_cfa_offset 8
	retq
.Ltmp26:
.Lfunc_end11:
	.size	_ZN66_$LT$rust_base256utf8..DecodeError$u20$as$u20$core..fmt..Debug$GT$3fmt17h3319b6f230a68b33E, .Lfunc_end11-_ZN66_$LT$rust_base256utf8..DecodeError$u20$as$u20$core..fmt..Debug$GT$3fmt17h3319b6f230a68b33E
	.cfi_endproc

	.section	".text._ZN60_$LT$rust_base256utf8..Emoji$u20$as$u20$core..fmt..Debug$GT$3fmt17h066a23ea992ab5c0E","ax",@progbits
	.globl	_ZN60_$LT$rust_base256utf8..Emoji$u20$as$u20$core..fmt..Debug$GT$3fmt17h066a23ea992ab5c0E
	.p2align	4, 0x90
	.type	_ZN60_$LT$rust_base256utf8..Emoji$u20$as$u20$core..fmt..Debug$GT$3fmt17h066a23ea992ab5c0E,@function
_ZN60_$LT$rust_base256utf8..Emoji$u20$as$u20$core..fmt..Debug$GT$3fmt17h066a23ea992ab5c0E:
.Lfunc_begin12:
	.loc	4 59 0 is_stmt 1
	.cfi_startproc
	subq	$40, %rsp
	.cfi_def_cfa_offset 48
	movq	%rsi, 8(%rsp)
	movq	%rdi, %rax
	movq	8(%rsp), %rdi
	movq	%rax, 24(%rsp)
	movq	%rdi, 32(%rsp)
.Ltmp27:
	.loc	4 59 10 prologue_end
	leaq	.L__unnamed_10(%rip), %rsi
	movl	$5, %edx
	callq	*_ZN4core3fmt9Formatter9write_str17h11b9b587c1fff8bbE@GOTPCREL(%rip)
	movb	%al, 23(%rsp)
	.loc	4 0 10 is_stmt 0
	movb	23(%rsp), %al
	.loc	4 59 15
	andb	$1, %al
	movzbl	%al, %eax
	addq	$40, %rsp
	.cfi_def_cfa_offset 8
	retq
.Ltmp28:
.Lfunc_end12:
	.size	_ZN60_$LT$rust_base256utf8..Emoji$u20$as$u20$core..fmt..Debug$GT$3fmt17h066a23ea992ab5c0E, .Lfunc_end12-_ZN60_$LT$rust_base256utf8..Emoji$u20$as$u20$core..fmt..Debug$GT$3fmt17h066a23ea992ab5c0E
	.cfi_endproc

	.section	".text._ZN66_$LT$rust_base256utf8..Emoji$u20$as$u20$rust_base256utf8..Base$GT$9get_index17h7f8a037123a5ac50E","ax",@progbits
	.globl	_ZN66_$LT$rust_base256utf8..Emoji$u20$as$u20$rust_base256utf8..Base$GT$9get_index17h7f8a037123a5ac50E
	.p2align	4, 0x90
	.type	_ZN66_$LT$rust_base256utf8..Emoji$u20$as$u20$rust_base256utf8..Base$GT$9get_index17h7f8a037123a5ac50E,@function
_ZN66_$LT$rust_base256utf8..Emoji$u20$as$u20$rust_base256utf8..Base$GT$9get_index17h7f8a037123a5ac50E:
.Lfunc_begin13:
	.loc	4 79 0 is_stmt 1
	.cfi_startproc
	subq	$32, %rsp
	.cfi_def_cfa_offset 40
	movl	%edi, 4(%rsp)
	movl	%edi, 28(%rsp)
.Ltmp29:
	.loc	4 80 5 prologue_end
	subl	$9654, %edi
	je	.LBB13_195
	jmp	.LBB13_259
.LBB13_259:
	.loc	4 0 5 is_stmt 0
	movl	4(%rsp), %eax
	.loc	4 80 5
	subl	$9728, %eax
	je	.LBB13_19
	jmp	.LBB13_260
.LBB13_260:
	.loc	4 0 5
	movl	4(%rsp), %eax
	.loc	4 80 5
	subl	$9732, %eax
	je	.LBB13_4
	jmp	.LBB13_261
.LBB13_261:
	.loc	4 0 5
	movl	4(%rsp), %eax
	.loc	4 80 5
	subl	$9742, %eax
	je	.LBB13_225
	jmp	.LBB13_262
.LBB13_262:
	.loc	4 0 5
	movl	4(%rsp), %eax
	.loc	4 80 5
	subl	$9749, %eax
	je	.LBB13_152
	jmp	.LBB13_263
.LBB13_263:
	.loc	4 0 5
	movl	4(%rsp), %eax
	.loc	4 80 5
	subl	$9757, %eax
	je	.LBB13_129
	jmp	.LBB13_264
.LBB13_264:
	.loc	4 0 5
	movl	4(%rsp), %eax
	.loc	4 80 5
	subl	$9785, %eax
	je	.LBB13_125
	jmp	.LBB13_265
.LBB13_265:
	.loc	4 0 5
	movl	4(%rsp), %eax
	.loc	4 80 5
	subl	$9786, %eax
	je	.LBB13_48
	jmp	.LBB13_266
.LBB13_266:
	.loc	4 0 5
	movl	4(%rsp), %eax
	.loc	4 80 5
	subl	$9888, %eax
	je	.LBB13_206
	jmp	.LBB13_267
.LBB13_267:
	.loc	4 0 5
	movl	4(%rsp), %eax
	.loc	4 80 5
	subl	$9889, %eax
	je	.LBB13_166
	jmp	.LBB13_268
.LBB13_268:
	.loc	4 0 5
	movl	4(%rsp), %eax
	.loc	4 80 5
	subl	$9917, %eax
	je	.LBB13_150
	jmp	.LBB13_269
.LBB13_269:
	.loc	4 0 5
	movl	4(%rsp), %eax
	.loc	4 80 5
	subl	$9989, %eax
	je	.LBB13_115
	jmp	.LBB13_270
.LBB13_270:
	.loc	4 0 5
	movl	4(%rsp), %eax
	.loc	4 80 5
	subl	$9992, %eax
	je	.LBB13_185
	jmp	.LBB13_271
.LBB13_271:
	.loc	4 0 5
	movl	4(%rsp), %eax
	.loc	4 80 5
	subl	$9994, %eax
	je	.LBB13_170
	jmp	.LBB13_272
.LBB13_272:
	.loc	4 0 5
	movl	4(%rsp), %eax
	.loc	4 80 5
	subl	$9995, %eax
	je	.LBB13_103
	jmp	.LBB13_273
.LBB13_273:
	.loc	4 0 5
	movl	4(%rsp), %eax
	.loc	4 80 5
	subl	$9996, %eax
	je	.LBB13_59
	jmp	.LBB13_274
.LBB13_274:
	.loc	4 0 5
	movl	4(%rsp), %eax
	.loc	4 80 5
	subl	$10004, %eax
	je	.LBB13_121
	jmp	.LBB13_275
.LBB13_275:
	.loc	4 0 5
	movl	4(%rsp), %eax
	.loc	4 80 5
	subl	$10024, %eax
	je	.LBB13_60
	jmp	.LBB13_276
.LBB13_276:
	.loc	4 0 5
	movl	4(%rsp), %eax
	.loc	4 80 5
	subl	$10052, %eax
	je	.LBB13_233
	jmp	.LBB13_277
.LBB13_277:
	.loc	4 0 5
	movl	4(%rsp), %eax
	.loc	4 80 5
	subl	$10060, %eax
	je	.LBB13_169
	jmp	.LBB13_278
.LBB13_278:
	.loc	4 0 5
	movl	4(%rsp), %eax
	.loc	4 80 5
	subl	$10067, %eax
	je	.LBB13_197
	jmp	.LBB13_279
.LBB13_279:
	.loc	4 0 5
	movl	4(%rsp), %eax
	.loc	4 80 5
	subl	$10083, %eax
	je	.LBB13_84
	jmp	.LBB13_280
.LBB13_280:
	.loc	4 0 5
	movl	4(%rsp), %eax
	.loc	4 80 5
	subl	$10084, %eax
	je	.LBB13_25
	jmp	.LBB13_281
.LBB13_281:
	.loc	4 0 5
	movl	4(%rsp), %eax
	.loc	4 80 5
	subl	$10145, %eax
	je	.LBB13_196
	jmp	.LBB13_282
.LBB13_282:
	.loc	4 0 5
	movl	4(%rsp), %eax
	.loc	4 80 5
	subl	$11015, %eax
	je	.LBB13_200
	jmp	.LBB13_283
.LBB13_283:
	.loc	4 0 5
	movl	4(%rsp), %eax
	.loc	4 80 5
	subl	$11088, %eax
	je	.LBB13_114
	jmp	.LBB13_284
.LBB13_284:
	.loc	4 0 5
	movl	4(%rsp), %eax
	.loc	4 80 5
	subl	$127752, %eax
	je	.LBB13_117
	jmp	.LBB13_285
.LBB13_285:
	.loc	4 0 5
	movl	4(%rsp), %eax
	.loc	4 80 5
	subl	$127754, %eax
	je	.LBB13_222
	jmp	.LBB13_286
.LBB13_286:
	.loc	4 0 5
	movl	4(%rsp), %eax
	.loc	4 80 5
	subl	$127756, %eax
	je	.LBB13_6
	jmp	.LBB13_287
.LBB13_287:
	.loc	4 0 5
	movl	4(%rsp), %eax
	.loc	4 80 5
	subl	$127757, %eax
	je	.LBB13_15
	jmp	.LBB13_288
.LBB13_288:
	.loc	4 0 5
	movl	4(%rsp), %eax
	.loc	4 80 5
	subl	$127758, %eax
	je	.LBB13_17
	jmp	.LBB13_289
.LBB13_289:
	.loc	4 0 5
	movl	4(%rsp), %eax
	.loc	4 80 5
	subl	$127759, %eax
	je	.LBB13_16
	jmp	.LBB13_290
.LBB13_290:
	.loc	4 0 5
	movl	4(%rsp), %eax
	.loc	4 80 5
	subl	$127761, %eax
	je	.LBB13_7
	jmp	.LBB13_291
.LBB13_291:
	.loc	4 0 5
	movl	4(%rsp), %eax
	.loc	4 80 5
	subl	$127762, %eax
	je	.LBB13_8
	jmp	.LBB13_292
.LBB13_292:
	.loc	4 0 5
	movl	4(%rsp), %eax
	.loc	4 80 5
	subl	$127763, %eax
	je	.LBB13_9
	jmp	.LBB13_293
.LBB13_293:
	.loc	4 0 5
	movl	4(%rsp), %eax
	.loc	4 80 5
	subl	$127764, %eax
	je	.LBB13_10
	jmp	.LBB13_294
.LBB13_294:
	.loc	4 0 5
	movl	4(%rsp), %eax
	.loc	4 80 5
	subl	$127765, %eax
	je	.LBB13_11
	jmp	.LBB13_295
.LBB13_295:
	.loc	4 0 5
	movl	4(%rsp), %eax
	.loc	4 80 5
	subl	$127766, %eax
	je	.LBB13_12
	jmp	.LBB13_296
.LBB13_296:
	.loc	4 0 5
	movl	4(%rsp), %eax
	.loc	4 80 5
	subl	$127767, %eax
	je	.LBB13_13
	jmp	.LBB13_297
.LBB13_297:
	.loc	4 0 5
	movl	4(%rsp), %eax
	.loc	4 80 5
	subl	$127768, %eax
	je	.LBB13_14
	jmp	.LBB13_298
.LBB13_298:
	.loc	4 0 5
	movl	4(%rsp), %eax
	.loc	4 80 5
	subl	$127770, %eax
	je	.LBB13_202
	jmp	.LBB13_299
.LBB13_299:
	.loc	4 0 5
	movl	4(%rsp), %eax
	.loc	4 80 5
	subl	$127774, %eax
	je	.LBB13_167
	jmp	.LBB13_300
.LBB13_300:
	.loc	4 0 5
	movl	4(%rsp), %eax
	.loc	4 80 5
	subl	$127775, %eax
	je	.LBB13_107
	jmp	.LBB13_301
.LBB13_301:
	.loc	4 0 5
	movl	4(%rsp), %eax
	.loc	4 80 5
	subl	$127793, %eax
	je	.LBB13_191
	jmp	.LBB13_302
.LBB13_302:
	.loc	4 0 5
	movl	4(%rsp), %eax
	.loc	4 80 5
	subl	$127796, %eax
	je	.LBB13_234
	jmp	.LBB13_303
.LBB13_303:
	.loc	4 0 5
	movl	4(%rsp), %eax
	.loc	4 80 5
	subl	$127799, %eax
	je	.LBB13_111
	jmp	.LBB13_304
.LBB13_304:
	.loc	4 0 5
	movl	4(%rsp), %eax
	.loc	4 80 5
	subl	$127800, %eax
	je	.LBB13_64
	jmp	.LBB13_305
.LBB13_305:
	.loc	4 0 5
	movl	4(%rsp), %eax
	.loc	4 80 5
	subl	$127801, %eax
	je	.LBB13_55
	jmp	.LBB13_306
.LBB13_306:
	.loc	4 0 5
	movl	4(%rsp), %eax
	.loc	4 80 5
	subl	$127802, %eax
	je	.LBB13_131
	jmp	.LBB13_307
.LBB13_307:
	.loc	4 0 5
	movl	4(%rsp), %eax
	.loc	4 80 5
	subl	$127803, %eax
	je	.LBB13_133
	jmp	.LBB13_308
.LBB13_308:
	.loc	4 0 5
	movl	4(%rsp), %eax
	.loc	4 80 5
	subl	$127804, %eax
	je	.LBB13_148
	jmp	.LBB13_309
.LBB13_309:
	.loc	4 0 5
	movl	4(%rsp), %eax
	.loc	4 80 5
	subl	$127807, %eax
	je	.LBB13_163
	jmp	.LBB13_310
.LBB13_310:
	.loc	4 0 5
	movl	4(%rsp), %eax
	.loc	4 80 5
	subl	$127808, %eax
	je	.LBB13_110
	jmp	.LBB13_311
.LBB13_311:
	.loc	4 0 5
	movl	4(%rsp), %eax
	.loc	4 80 5
	subl	$127811, %eax
	je	.LBB13_159
	jmp	.LBB13_312
.LBB13_312:
	.loc	4 0 5
	movl	4(%rsp), %eax
	.loc	4 80 5
	subl	$127818, %eax
	je	.LBB13_253
	jmp	.LBB13_313
.LBB13_313:
	.loc	4 0 5
	movl	4(%rsp), %eax
	.loc	4 80 5
	subl	$127822, %eax
	je	.LBB13_252
	jmp	.LBB13_314
.LBB13_314:
	.loc	4 0 5
	movl	4(%rsp), %eax
	.loc	4 80 5
	subl	$127825, %eax
	je	.LBB13_232
	jmp	.LBB13_315
.LBB13_315:
	.loc	4 0 5
	movl	4(%rsp), %eax
	.loc	4 80 5
	subl	$127826, %eax
	je	.LBB13_219
	jmp	.LBB13_316
.LBB13_316:
	.loc	4 0 5
	movl	4(%rsp), %eax
	.loc	4 80 5
	subl	$127827, %eax
	je	.LBB13_178
	jmp	.LBB13_317
.LBB13_317:
	.loc	4 0 5
	movl	4(%rsp), %eax
	.loc	4 80 5
	subl	$127866, %eax
	je	.LBB13_187
	jmp	.LBB13_318
.LBB13_318:
	.loc	4 0 5
	movl	4(%rsp), %eax
	.loc	4 80 5
	subl	$127867, %eax
	je	.LBB13_158
	jmp	.LBB13_319
.LBB13_319:
	.loc	4 0 5
	movl	4(%rsp), %eax
	.loc	4 80 5
	subl	$127872, %eax
	je	.LBB13_186
	jmp	.LBB13_320
.LBB13_320:
	.loc	4 0 5
	movl	4(%rsp), %eax
	.loc	4 80 5
	subl	$127873, %eax
	je	.LBB13_165
	jmp	.LBB13_321
.LBB13_321:
	.loc	4 0 5
	movl	4(%rsp), %eax
	.loc	4 80 5
	subl	$127874, %eax
	je	.LBB13_132
	jmp	.LBB13_322
.LBB13_322:
	.loc	4 0 5
	movl	4(%rsp), %eax
	.loc	4 80 5
	subl	$127880, %eax
	je	.LBB13_168
	jmp	.LBB13_323
.LBB13_323:
	.loc	4 0 5
	movl	4(%rsp), %eax
	.loc	4 80 5
	subl	$127881, %eax
	je	.LBB13_57
	jmp	.LBB13_324
.LBB13_324:
	.loc	4 0 5
	movl	4(%rsp), %eax
	.loc	4 80 5
	subl	$127882, %eax
	je	.LBB13_126
	jmp	.LBB13_325
.LBB13_325:
	.loc	4 0 5
	movl	4(%rsp), %eax
	.loc	4 80 5
	subl	$127908, %eax
	je	.LBB13_230
	jmp	.LBB13_326
.LBB13_326:
	.loc	4 0 5
	movl	4(%rsp), %eax
	.loc	4 80 5
	subl	$127925, %eax
	je	.LBB13_143
	jmp	.LBB13_327
.LBB13_327:
	.loc	4 0 5
	movl	4(%rsp), %eax
	.loc	4 80 5
	subl	$127926, %eax
	je	.LBB13_81
	jmp	.LBB13_328
.LBB13_328:
	.loc	4 0 5
	movl	4(%rsp), %eax
	.loc	4 80 5
	subl	$127932, %eax
	je	.LBB13_249
	jmp	.LBB13_329
.LBB13_329:
	.loc	4 0 5
	movl	4(%rsp), %eax
	.loc	4 80 5
	subl	$127939, %eax
	je	.LBB13_123
	jmp	.LBB13_330
.LBB13_330:
	.loc	4 0 5
	movl	4(%rsp), %eax
	.loc	4 80 5
	subl	$127942, %eax
	je	.LBB13_153
	jmp	.LBB13_331
.LBB13_331:
	.loc	4 0 5
	movl	4(%rsp), %eax
	.loc	4 80 5
	subl	$128009, %eax
	je	.LBB13_18
	jmp	.LBB13_332
.LBB13_332:
	.loc	4 0 5
	movl	4(%rsp), %eax
	.loc	4 80 5
	subl	$128054, %eax
	je	.LBB13_160
	jmp	.LBB13_333
.LBB13_333:
	.loc	4 0 5
	movl	4(%rsp), %eax
	.loc	4 80 5
	subl	$128055, %eax
	je	.LBB13_224
	jmp	.LBB13_334
.LBB13_334:
	.loc	4 0 5
	movl	4(%rsp), %eax
	.loc	4 80 5
	subl	$128056, %eax
	je	.LBB13_236
	jmp	.LBB13_335
.LBB13_335:
	.loc	4 0 5
	movl	4(%rsp), %eax
	.loc	4 80 5
	subl	$128062, %eax
	je	.LBB13_218
	jmp	.LBB13_336
.LBB13_336:
	.loc	4 0 5
	movl	4(%rsp), %eax
	.loc	4 80 5
	subl	$128064, %eax
	je	.LBB13_87
	jmp	.LBB13_337
.LBB13_337:
	.loc	4 0 5
	movl	4(%rsp), %eax
	.loc	4 80 5
	subl	$128069, %eax
	je	.LBB13_241
	jmp	.LBB13_338
.LBB13_338:
	.loc	4 0 5
	movl	4(%rsp), %eax
	.loc	4 80 5
	subl	$128070, %eax
	je	.LBB13_229
	jmp	.LBB13_339
.LBB13_339:
	.loc	4 0 5
	movl	4(%rsp), %eax
	.loc	4 80 5
	subl	$128071, %eax
	je	.LBB13_80
	jmp	.LBB13_340
.LBB13_340:
	.loc	4 0 5
	movl	4(%rsp), %eax
	.loc	4 80 5
	subl	$128072, %eax
	je	.LBB13_155
	jmp	.LBB13_341
.LBB13_341:
	.loc	4 0 5
	movl	4(%rsp), %eax
	.loc	4 80 5
	subl	$128073, %eax
	je	.LBB13_100
	jmp	.LBB13_342
.LBB13_342:
	.loc	4 0 5
	movl	4(%rsp), %eax
	.loc	4 80 5
	subl	$128074, %eax
	je	.LBB13_96
	jmp	.LBB13_343
.LBB13_343:
	.loc	4 0 5
	movl	4(%rsp), %eax
	.loc	4 80 5
	subl	$128075, %eax
	je	.LBB13_171
	jmp	.LBB13_344
.LBB13_344:
	.loc	4 0 5
	movl	4(%rsp), %eax
	.loc	4 80 5
	subl	$128076, %eax
	je	.LBB13_49
	jmp	.LBB13_345
.LBB13_345:
	.loc	4 0 5
	movl	4(%rsp), %eax
	.loc	4 80 5
	subl	$128077, %eax
	je	.LBB13_33
	jmp	.LBB13_346
.LBB13_346:
	.loc	4 0 5
	movl	4(%rsp), %eax
	.loc	4 80 5
	subl	$128078, %eax
	je	.LBB13_210
	jmp	.LBB13_347
.LBB13_347:
	.loc	4 0 5
	movl	4(%rsp), %eax
	.loc	4 80 5
	subl	$128079, %eax
	je	.LBB13_35
	jmp	.LBB13_348
.LBB13_348:
	.loc	4 0 5
	movl	4(%rsp), %eax
	.loc	4 80 5
	subl	$128080, %eax
	je	.LBB13_244
	jmp	.LBB13_349
.LBB13_349:
	.loc	4 0 5
	movl	4(%rsp), %eax
	.loc	4 80 5
	subl	$128081, %eax
	je	.LBB13_142
	jmp	.LBB13_350
.LBB13_350:
	.loc	4 0 5
	movl	4(%rsp), %eax
	.loc	4 80 5
	subl	$128118, %eax
	je	.LBB13_193
	jmp	.LBB13_351
.LBB13_351:
	.loc	4 0 5
	movl	4(%rsp), %eax
	.loc	4 80 5
	subl	$128123, %eax
	je	.LBB13_246
	jmp	.LBB13_352
.LBB13_352:
	.loc	4 0 5
	movl	4(%rsp), %eax
	.loc	4 80 5
	subl	$128124, %eax
	je	.LBB13_254
	jmp	.LBB13_353
.LBB13_353:
	.loc	4 0 5
	movl	4(%rsp), %eax
	.loc	4 80 5
	subl	$128128, %eax
	je	.LBB13_141
	jmp	.LBB13_354
.LBB13_354:
	.loc	4 0 5
	movl	4(%rsp), %eax
	.loc	4 80 5
	subl	$128129, %eax
	je	.LBB13_161
	jmp	.LBB13_355
.LBB13_355:
	.loc	4 0 5
	movl	4(%rsp), %eax
	.loc	4 80 5
	subl	$128131, %eax
	je	.LBB13_101
	jmp	.LBB13_356
.LBB13_356:
	.loc	4 0 5
	movl	4(%rsp), %eax
	.loc	4 80 5
	subl	$128133, %eax
	je	.LBB13_216
	jmp	.LBB13_357
.LBB13_357:
	.loc	4 0 5
	movl	4(%rsp), %eax
	.loc	4 80 5
	subl	$128134, %eax
	je	.LBB13_228
	jmp	.LBB13_358
.LBB13_358:
	.loc	4 0 5
	movl	4(%rsp), %eax
	.loc	4 80 5
	subl	$128139, %eax
	je	.LBB13_86
	jmp	.LBB13_359
.LBB13_359:
	.loc	4 0 5
	movl	4(%rsp), %eax
	.loc	4 80 5
	subl	$128140, %eax
	je	.LBB13_237
	jmp	.LBB13_360
.LBB13_360:
	.loc	4 0 5
	movl	4(%rsp), %eax
	.loc	4 80 5
	subl	$128141, %eax
	je	.LBB13_255
	jmp	.LBB13_361
.LBB13_361:
	.loc	4 0 5
	movl	4(%rsp), %eax
	.loc	4 80 5
	subl	$128142, %eax
	je	.LBB13_198
	jmp	.LBB13_362
.LBB13_362:
	.loc	4 0 5
	movl	4(%rsp), %eax
	.loc	4 80 5
	subl	$128144, %eax
	je	.LBB13_124
	jmp	.LBB13_363
.LBB13_363:
	.loc	4 0 5
	movl	4(%rsp), %eax
	.loc	4 80 5
	subl	$128147, %eax
	je	.LBB13_72
	jmp	.LBB13_364
.LBB13_364:
	.loc	4 0 5
	movl	4(%rsp), %eax
	.loc	4 80 5
	subl	$128148, %eax
	je	.LBB13_39
	jmp	.LBB13_365
.LBB13_365:
	.loc	4 0 5
	movl	4(%rsp), %eax
	.loc	4 80 5
	subl	$128149, %eax
	je	.LBB13_30
	jmp	.LBB13_366
.LBB13_366:
	.loc	4 0 5
	movl	4(%rsp), %eax
	.loc	4 80 5
	subl	$128150, %eax
	je	.LBB13_40
	jmp	.LBB13_367
.LBB13_367:
	.loc	4 0 5
	movl	4(%rsp), %eax
	.loc	4 80 5
	subl	$128151, %eax
	je	.LBB13_67
	jmp	.LBB13_368
.LBB13_368:
	.loc	4 0 5
	movl	4(%rsp), %eax
	.loc	4 80 5
	subl	$128152, %eax
	je	.LBB13_127
	jmp	.LBB13_369
.LBB13_369:
	.loc	4 0 5
	movl	4(%rsp), %eax
	.loc	4 80 5
	subl	$128153, %eax
	je	.LBB13_41
	jmp	.LBB13_370
.LBB13_370:
	.loc	4 0 5
	movl	4(%rsp), %eax
	.loc	4 80 5
	subl	$128154, %eax
	je	.LBB13_68
	jmp	.LBB13_371
.LBB13_371:
	.loc	4 0 5
	movl	4(%rsp), %eax
	.loc	4 80 5
	subl	$128155, %eax
	je	.LBB13_70
	jmp	.LBB13_372
.LBB13_372:
	.loc	4 0 5
	movl	4(%rsp), %eax
	.loc	4 80 5
	subl	$128156, %eax
	je	.LBB13_51
	jmp	.LBB13_373
.LBB13_373:
	.loc	4 0 5
	movl	4(%rsp), %eax
	.loc	4 80 5
	subl	$128157, %eax
	je	.LBB13_136
	jmp	.LBB13_374
.LBB13_374:
	.loc	4 0 5
	movl	4(%rsp), %eax
	.loc	4 80 5
	subl	$128158, %eax
	je	.LBB13_58
	jmp	.LBB13_375
.LBB13_375:
	.loc	4 0 5
	movl	4(%rsp), %eax
	.loc	4 80 5
	subl	$128159, %eax
	je	.LBB13_190
	jmp	.LBB13_376
.LBB13_376:
	.loc	4 0 5
	movl	4(%rsp), %eax
	.loc	4 80 5
	subl	$128161, %eax
	je	.LBB13_242
	jmp	.LBB13_377
.LBB13_377:
	.loc	4 0 5
	movl	4(%rsp), %eax
	.loc	4 80 5
	subl	$128162, %eax
	je	.LBB13_179
	jmp	.LBB13_378
.LBB13_378:
	.loc	4 0 5
	movl	4(%rsp), %eax
	.loc	4 80 5
	subl	$128163, %eax
	je	.LBB13_235
	jmp	.LBB13_379
.LBB13_379:
	.loc	4 0 5
	movl	4(%rsp), %eax
	.loc	4 80 5
	subl	$128165, %eax
	je	.LBB13_90
	jmp	.LBB13_380
.LBB13_380:
	.loc	4 0 5
	movl	4(%rsp), %eax
	.loc	4 80 5
	subl	$128166, %eax
	je	.LBB13_120
	jmp	.LBB13_381
.LBB13_381:
	.loc	4 0 5
	movl	4(%rsp), %eax
	.loc	4 80 5
	subl	$128167, %eax
	je	.LBB13_226
	jmp	.LBB13_382
.LBB13_382:
	.loc	4 0 5
	movl	4(%rsp), %eax
	.loc	4 80 5
	subl	$128168, %eax
	je	.LBB13_183
	jmp	.LBB13_383
.LBB13_383:
	.loc	4 0 5
	movl	4(%rsp), %eax
	.loc	4 80 5
	subl	$128169, %eax
	je	.LBB13_243
	jmp	.LBB13_384
.LBB13_384:
	.loc	4 0 5
	movl	4(%rsp), %eax
	.loc	4 80 5
	subl	$128170, %eax
	je	.LBB13_46
	jmp	.LBB13_385
.LBB13_385:
	.loc	4 0 5
	movl	4(%rsp), %eax
	.loc	4 80 5
	subl	$128171, %eax
	je	.LBB13_140
	jmp	.LBB13_386
.LBB13_386:
	.loc	4 0 5
	movl	4(%rsp), %eax
	.loc	4 80 5
	subl	$128175, %eax
	je	.LBB13_78
	jmp	.LBB13_387
.LBB13_387:
	.loc	4 0 5
	movl	4(%rsp), %eax
	.loc	4 80 5
	subl	$128176, %eax
	je	.LBB13_177
	jmp	.LBB13_388
.LBB13_388:
	.loc	4 0 5
	movl	4(%rsp), %eax
	.loc	4 80 5
	subl	$128184, %eax
	je	.LBB13_199
	jmp	.LBB13_389
.LBB13_389:
	.loc	4 0 5
	movl	4(%rsp), %eax
	.loc	4 80 5
	subl	$128187, %eax
	je	.LBB13_20
	jmp	.LBB13_390
.LBB13_390:
	.loc	4 0 5
	movl	4(%rsp), %eax
	.loc	4 80 5
	subl	$128190, %eax
	je	.LBB13_22
	jmp	.LBB13_391
.LBB13_391:
	.loc	4 0 5
	movl	4(%rsp), %eax
	.loc	4 80 5
	subl	$128191, %eax
	je	.LBB13_23
	jmp	.LBB13_392
.LBB13_392:
	.loc	4 0 5
	movl	4(%rsp), %eax
	.loc	4 80 5
	subl	$128204, %eax
	je	.LBB13_214
	jmp	.LBB13_393
.LBB13_393:
	.loc	4 0 5
	movl	4(%rsp), %eax
	.loc	4 80 5
	subl	$128205, %eax
	je	.LBB13_238
	jmp	.LBB13_394
.LBB13_394:
	.loc	4 0 5
	movl	4(%rsp), %eax
	.loc	4 80 5
	subl	$128227, %eax
	je	.LBB13_256
	jmp	.LBB13_395
.LBB13_395:
	.loc	4 0 5
	movl	4(%rsp), %eax
	.loc	4 80 5
	subl	$128248, %eax
	je	.LBB13_245
	jmp	.LBB13_396
.LBB13_396:
	.loc	4 0 5
	movl	4(%rsp), %eax
	.loc	4 80 5
	subl	$128293, %eax
	je	.LBB13_37
	jmp	.LBB13_397
.LBB13_397:
	.loc	4 0 5
	movl	4(%rsp), %eax
	.loc	4 80 5
	subl	$128308, %eax
	je	.LBB13_146
	jmp	.LBB13_398
.LBB13_398:
	.loc	4 0 5
	movl	4(%rsp), %eax
	.loc	4 80 5
	subl	$128309, %eax
	je	.LBB13_215
	jmp	.LBB13_399
.LBB13_399:
	.loc	4 0 5
	movl	4(%rsp), %eax
	.loc	4 80 5
	subl	$128378, %eax
	je	.LBB13_205
	jmp	.LBB13_400
.LBB13_400:
	.loc	4 0 5
	movl	4(%rsp), %eax
	.loc	4 80 5
	subl	$128405, %eax
	je	.LBB13_135
	jmp	.LBB13_401
.LBB13_401:
	.loc	4 0 5
	movl	4(%rsp), %eax
	.loc	4 80 5
	subl	$128420, %eax
	je	.LBB13_76
	jmp	.LBB13_402
.LBB13_402:
	.loc	4 0 5
	movl	4(%rsp), %eax
	.loc	4 80 5
	subl	$128421, %eax
	je	.LBB13_21
	jmp	.LBB13_403
.LBB13_403:
	.loc	4 0 5
	movl	4(%rsp), %eax
	.loc	4 80 5
	subl	$128483, %eax
	je	.LBB13_139
	jmp	.LBB13_404
.LBB13_404:
	.loc	4 0 5
	movl	4(%rsp), %eax
	.loc	4 80 5
	subl	$128512, %eax
	je	.LBB13_75
	jmp	.LBB13_405
.LBB13_405:
	.loc	4 0 5
	movl	4(%rsp), %eax
	.loc	4 80 5
	subl	$128513, %eax
	je	.LBB13_36
	jmp	.LBB13_406
.LBB13_406:
	.loc	4 0 5
	movl	4(%rsp), %eax
	.loc	4 80 5
	subl	$128514, %eax
	je	.LBB13_24
	jmp	.LBB13_407
.LBB13_407:
	.loc	4 0 5
	movl	4(%rsp), %eax
	.loc	4 80 5
	subl	$128515, %eax
	je	.LBB13_77
	jmp	.LBB13_408
.LBB13_408:
	.loc	4 0 5
	movl	4(%rsp), %eax
	.loc	4 80 5
	subl	$128516, %eax
	je	.LBB13_74
	jmp	.LBB13_409
.LBB13_409:
	.loc	4 0 5
	movl	4(%rsp), %eax
	.loc	4 80 5
	subl	$128517, %eax
	je	.LBB13_34
	jmp	.LBB13_410
.LBB13_410:
	.loc	4 0 5
	movl	4(%rsp), %eax
	.loc	4 80 5
	subl	$128518, %eax
	je	.LBB13_44
	jmp	.LBB13_411
.LBB13_411:
	.loc	4 0 5
	movl	4(%rsp), %eax
	.loc	4 80 5
	subl	$128519, %eax
	je	.LBB13_54
	jmp	.LBB13_412
.LBB13_412:
	.loc	4 0 5
	movl	4(%rsp), %eax
	.loc	4 80 5
	subl	$128520, %eax
	je	.LBB13_118
	jmp	.LBB13_413
.LBB13_413:
	.loc	4 0 5
	movl	4(%rsp), %eax
	.loc	4 80 5
	subl	$128521, %eax
	je	.LBB13_47
	jmp	.LBB13_414
.LBB13_414:
	.loc	4 0 5
	movl	4(%rsp), %eax
	.loc	4 80 5
	subl	$128522, %eax
	je	.LBB13_28
	jmp	.LBB13_415
.LBB13_415:
	.loc	4 0 5
	movl	4(%rsp), %eax
	.loc	4 80 5
	subl	$128523, %eax
	je	.LBB13_66
	jmp	.LBB13_416
.LBB13_416:
	.loc	4 0 5
	movl	4(%rsp), %eax
	.loc	4 80 5
	subl	$128524, %eax
	je	.LBB13_63
	jmp	.LBB13_417
.LBB13_417:
	.loc	4 0 5
	movl	4(%rsp), %eax
	.loc	4 80 5
	subl	$128525, %eax
	je	.LBB13_26
	jmp	.LBB13_418
.LBB13_418:
	.loc	4 0 5
	movl	4(%rsp), %eax
	.loc	4 80 5
	subl	$128526, %eax
	je	.LBB13_53
	jmp	.LBB13_419
.LBB13_419:
	.loc	4 0 5
	movl	4(%rsp), %eax
	.loc	4 80 5
	subl	$128527, %eax
	je	.LBB13_69
	jmp	.LBB13_420
.LBB13_420:
	.loc	4 0 5
	movl	4(%rsp), %eax
	.loc	4 80 5
	subl	$128528, %eax
	je	.LBB13_134
	jmp	.LBB13_421
.LBB13_421:
	.loc	4 0 5
	movl	4(%rsp), %eax
	.loc	4 80 5
	subl	$128529, %eax
	je	.LBB13_89
	jmp	.LBB13_422
.LBB13_422:
	.loc	4 0 5
	movl	4(%rsp), %eax
	.loc	4 80 5
	subl	$128530, %eax
	je	.LBB13_82
	jmp	.LBB13_423
.LBB13_423:
	.loc	4 0 5
	movl	4(%rsp), %eax
	.loc	4 80 5
	subl	$128531, %eax
	je	.LBB13_113
	jmp	.LBB13_424
.LBB13_424:
	.loc	4 0 5
	movl	4(%rsp), %eax
	.loc	4 80 5
	subl	$128532, %eax
	je	.LBB13_52
	jmp	.LBB13_425
.LBB13_425:
	.loc	4 0 5
	movl	4(%rsp), %eax
	.loc	4 80 5
	subl	$128533, %eax
	je	.LBB13_130
	jmp	.LBB13_426
.LBB13_426:
	.loc	4 0 5
	movl	4(%rsp), %eax
	.loc	4 80 5
	subl	$128534, %eax
	je	.LBB13_192
	jmp	.LBB13_427
.LBB13_427:
	.loc	4 0 5
	movl	4(%rsp), %eax
	.loc	4 80 5
	subl	$128535, %eax
	je	.LBB13_220
	jmp	.LBB13_428
.LBB13_428:
	.loc	4 0 5
	movl	4(%rsp), %eax
	.loc	4 80 5
	subl	$128536, %eax
	je	.LBB13_32
	jmp	.LBB13_429
.LBB13_429:
	.loc	4 0 5
	movl	4(%rsp), %eax
	.loc	4 80 5
	subl	$128537, %eax
	je	.LBB13_189
	jmp	.LBB13_430
.LBB13_430:
	.loc	4 0 5
	movl	4(%rsp), %eax
	.loc	4 80 5
	subl	$128538, %eax
	je	.LBB13_104
	jmp	.LBB13_431
.LBB13_431:
	.loc	4 0 5
	movl	4(%rsp), %eax
	.loc	4 80 5
	subl	$128539, %eax
	je	.LBB13_145
	jmp	.LBB13_432
.LBB13_432:
	.loc	4 0 5
	movl	4(%rsp), %eax
	.loc	4 80 5
	subl	$128540, %eax
	je	.LBB13_85
	jmp	.LBB13_433
.LBB13_433:
	.loc	4 0 5
	movl	4(%rsp), %eax
	.loc	4 80 5
	subl	$128541, %eax
	je	.LBB13_105
	jmp	.LBB13_434
.LBB13_434:
	.loc	4 0 5
	movl	4(%rsp), %eax
	.loc	4 80 5
	subl	$128542, %eax
	je	.LBB13_92
	jmp	.LBB13_435
.LBB13_435:
	.loc	4 0 5
	movl	4(%rsp), %eax
	.loc	4 80 5
	subl	$128543, %eax
	je	.LBB13_208
	jmp	.LBB13_436
.LBB13_436:
	.loc	4 0 5
	movl	4(%rsp), %eax
	.loc	4 80 5
	subl	$128544, %eax
	je	.LBB13_128
	jmp	.LBB13_437
.LBB13_437:
	.loc	4 0 5
	movl	4(%rsp), %eax
	.loc	4 80 5
	subl	$128545, %eax
	je	.LBB13_94
	jmp	.LBB13_438
.LBB13_438:
	.loc	4 0 5
	movl	4(%rsp), %eax
	.loc	4 80 5
	subl	$128546, %eax
	je	.LBB13_42
	jmp	.LBB13_439
.LBB13_439:
	.loc	4 0 5
	movl	4(%rsp), %eax
	.loc	4 80 5
	subl	$128547, %eax
	je	.LBB13_122
	jmp	.LBB13_440
.LBB13_440:
	.loc	4 0 5
	movl	4(%rsp), %eax
	.loc	4 80 5
	subl	$128548, %eax
	je	.LBB13_147
	jmp	.LBB13_441
.LBB13_441:
	.loc	4 0 5
	movl	4(%rsp), %eax
	.loc	4 80 5
	subl	$128549, %eax
	je	.LBB13_98
	jmp	.LBB13_442
.LBB13_442:
	.loc	4 0 5
	movl	4(%rsp), %eax
	.loc	4 80 5
	subl	$128552, %eax
	je	.LBB13_201
	jmp	.LBB13_443
.LBB13_443:
	.loc	4 0 5
	movl	4(%rsp), %eax
	.loc	4 80 5
	subl	$128553, %eax
	je	.LBB13_93
	jmp	.LBB13_444
.LBB13_444:
	.loc	4 0 5
	movl	4(%rsp), %eax
	.loc	4 80 5
	subl	$128554, %eax
	je	.LBB13_88
	jmp	.LBB13_445
.LBB13_445:
	.loc	4 0 5
	movl	4(%rsp), %eax
	.loc	4 80 5
	subl	$128555, %eax
	je	.LBB13_149
	jmp	.LBB13_446
.LBB13_446:
	.loc	4 0 5
	movl	4(%rsp), %eax
	.loc	4 80 5
	subl	$128556, %eax
	je	.LBB13_108
	jmp	.LBB13_447
.LBB13_447:
	.loc	4 0 5
	movl	4(%rsp), %eax
	.loc	4 80 5
	subl	$128557, %eax
	je	.LBB13_31
	jmp	.LBB13_448
.LBB13_448:
	.loc	4 0 5
	movl	4(%rsp), %eax
	.loc	4 80 5
	subl	$128558, %eax
	je	.LBB13_156
	jmp	.LBB13_449
.LBB13_449:
	.loc	4 0 5
	movl	4(%rsp), %eax
	.loc	4 80 5
	subl	$128559, %eax
	je	.LBB13_227
	jmp	.LBB13_450
.LBB13_450:
	.loc	4 0 5
	movl	4(%rsp), %eax
	.loc	4 80 5
	subl	$128560, %eax
	je	.LBB13_172
	jmp	.LBB13_451
.LBB13_451:
	.loc	4 0 5
	movl	4(%rsp), %eax
	.loc	4 80 5
	subl	$128561, %eax
	je	.LBB13_62
	jmp	.LBB13_452
.LBB13_452:
	.loc	4 0 5
	movl	4(%rsp), %eax
	.loc	4 80 5
	subl	$128562, %eax
	je	.LBB13_162
	jmp	.LBB13_453
.LBB13_453:
	.loc	4 0 5
	movl	4(%rsp), %eax
	.loc	4 80 5
	subl	$128563, %eax
	je	.LBB13_102
	jmp	.LBB13_454
.LBB13_454:
	.loc	4 0 5
	movl	4(%rsp), %eax
	.loc	4 80 5
	subl	$128564, %eax
	je	.LBB13_106
	jmp	.LBB13_455
.LBB13_455:
	.loc	4 0 5
	movl	4(%rsp), %eax
	.loc	4 80 5
	subl	$128565, %eax
	je	.LBB13_209
	jmp	.LBB13_456
.LBB13_456:
	.loc	4 0 5
	movl	4(%rsp), %eax
	.loc	4 80 5
	subl	$128566, %eax
	je	.LBB13_174
	jmp	.LBB13_457
.LBB13_457:
	.loc	4 0 5
	movl	4(%rsp), %eax
	.loc	4 80 5
	subl	$128567, %eax
	je	.LBB13_204
	jmp	.LBB13_458
.LBB13_458:
	.loc	4 0 5
	movl	4(%rsp), %eax
	.loc	4 80 5
	subl	$128569, %eax
	je	.LBB13_138
	jmp	.LBB13_459
.LBB13_459:
	.loc	4 0 5
	movl	4(%rsp), %eax
	.loc	4 80 5
	subl	$128571, %eax
	je	.LBB13_112
	jmp	.LBB13_460
.LBB13_460:
	.loc	4 0 5
	movl	4(%rsp), %eax
	.loc	4 80 5
	subl	$128577, %eax
	je	.LBB13_181
	jmp	.LBB13_461
.LBB13_461:
	.loc	4 0 5
	movl	4(%rsp), %eax
	.loc	4 80 5
	subl	$128578, %eax
	je	.LBB13_71
	jmp	.LBB13_462
.LBB13_462:
	.loc	4 0 5
	movl	4(%rsp), %eax
	.loc	4 80 5
	subl	$128579, %eax
	je	.LBB13_109
	jmp	.LBB13_463
.LBB13_463:
	.loc	4 0 5
	movl	4(%rsp), %eax
	.loc	4 80 5
	subl	$128580, %eax
	je	.LBB13_45
	jmp	.LBB13_464
.LBB13_464:
	.loc	4 0 5
	movl	4(%rsp), %eax
	.loc	4 80 5
	subl	$128581, %eax
	je	.LBB13_207
	jmp	.LBB13_465
.LBB13_465:
	.loc	4 0 5
	movl	4(%rsp), %eax
	.loc	4 80 5
	subl	$128582, %eax
	je	.LBB13_157
	jmp	.LBB13_466
.LBB13_466:
	.loc	4 0 5
	movl	4(%rsp), %eax
	.loc	4 80 5
	subl	$128583, %eax
	je	.LBB13_231
	jmp	.LBB13_467
.LBB13_467:
	.loc	4 0 5
	movl	4(%rsp), %eax
	.loc	4 80 5
	subl	$128584, %eax
	je	.LBB13_79
	jmp	.LBB13_468
.LBB13_468:
	.loc	4 0 5
	movl	4(%rsp), %eax
	.loc	4 80 5
	subl	$128586, %eax
	je	.LBB13_137
	jmp	.LBB13_469
.LBB13_469:
	.loc	4 0 5
	movl	4(%rsp), %eax
	.loc	4 80 5
	subl	$128587, %eax
	je	.LBB13_91
	jmp	.LBB13_470
.LBB13_470:
	.loc	4 0 5
	movl	4(%rsp), %eax
	.loc	4 80 5
	subl	$128588, %eax
	je	.LBB13_65
	jmp	.LBB13_471
.LBB13_471:
	.loc	4 0 5
	movl	4(%rsp), %eax
	.loc	4 80 5
	subl	$128591, %eax
	je	.LBB13_29
	jmp	.LBB13_472
.LBB13_472:
	.loc	4 0 5
	movl	4(%rsp), %eax
	.loc	4 80 5
	subl	$128640, %eax
	je	.LBB13_2
	jmp	.LBB13_473
.LBB13_473:
	.loc	4 0 5
	movl	4(%rsp), %eax
	.loc	4 80 5
	subl	$128680, %eax
	je	.LBB13_182
	jmp	.LBB13_474
.LBB13_474:
	.loc	4 0 5
	movl	4(%rsp), %eax
	.loc	4 80 5
	subl	$128681, %eax
	je	.LBB13_251
	jmp	.LBB13_475
.LBB13_475:
	.loc	4 0 5
	movl	4(%rsp), %eax
	.loc	4 80 5
	subl	$128694, %eax
	je	.LBB13_176
	jmp	.LBB13_476
.LBB13_476:
	.loc	4 0 5
	movl	4(%rsp), %eax
	.loc	4 80 5
	subl	$128752, %eax
	je	.LBB13_5
	jmp	.LBB13_477
.LBB13_477:
	.loc	4 0 5
	movl	4(%rsp), %eax
	.loc	4 80 5
	subl	$129296, %eax
	je	.LBB13_247
	jmp	.LBB13_478
.LBB13_478:
	.loc	4 0 5
	movl	4(%rsp), %eax
	.loc	4 80 5
	subl	$129297, %eax
	je	.LBB13_221
	jmp	.LBB13_479
.LBB13_479:
	.loc	4 0 5
	movl	4(%rsp), %eax
	.loc	4 80 5
	subl	$129299, %eax
	je	.LBB13_188
	jmp	.LBB13_480
.LBB13_480:
	.loc	4 0 5
	movl	4(%rsp), %eax
	.loc	4 80 5
	subl	$129300, %eax
	je	.LBB13_43
	jmp	.LBB13_481
.LBB13_481:
	.loc	4 0 5
	movl	4(%rsp), %eax
	.loc	4 80 5
	subl	$129303, %eax
	je	.LBB13_50
	jmp	.LBB13_482
.LBB13_482:
	.loc	4 0 5
	movl	4(%rsp), %eax
	.loc	4 80 5
	subl	$129304, %eax
	je	.LBB13_119
	jmp	.LBB13_483
.LBB13_483:
	.loc	4 0 5
	movl	4(%rsp), %eax
	.loc	4 80 5
	subl	$129305, %eax
	je	.LBB13_151
	jmp	.LBB13_484
.LBB13_484:
	.loc	4 0 5
	movl	4(%rsp), %eax
	.loc	4 80 5
	subl	$129309, %eax
	je	.LBB13_175
	jmp	.LBB13_485
.LBB13_485:
	.loc	4 0 5
	movl	4(%rsp), %eax
	.loc	4 80 5
	subl	$129310, %eax
	je	.LBB13_144
	jmp	.LBB13_486
.LBB13_486:
	.loc	4 0 5
	movl	4(%rsp), %eax
	.loc	4 80 5
	subl	$129311, %eax
	je	.LBB13_180
	jmp	.LBB13_487
.LBB13_487:
	.loc	4 0 5
	movl	4(%rsp), %eax
	.loc	4 80 5
	subl	$129312, %eax
	je	.LBB13_212
	jmp	.LBB13_488
.LBB13_488:
	.loc	4 0 5
	movl	4(%rsp), %eax
	.loc	4 80 5
	subl	$129314, %eax
	je	.LBB13_240
	jmp	.LBB13_489
.LBB13_489:
	.loc	4 0 5
	movl	4(%rsp), %eax
	.loc	4 80 5
	subl	$129315, %eax
	je	.LBB13_27
	jmp	.LBB13_490
.LBB13_490:
	.loc	4 0 5
	movl	4(%rsp), %eax
	.loc	4 80 5
	subl	$129316, %eax
	je	.LBB13_99
	jmp	.LBB13_491
.LBB13_491:
	.loc	4 0 5
	movl	4(%rsp), %eax
	.loc	4 80 5
	subl	$129318, %eax
	je	.LBB13_56
	jmp	.LBB13_492
.LBB13_492:
	.loc	4 0 5
	movl	4(%rsp), %eax
	.loc	4 80 5
	subl	$129319, %eax
	je	.LBB13_213
	jmp	.LBB13_493
.LBB13_493:
	.loc	4 0 5
	movl	4(%rsp), %eax
	.loc	4 80 5
	subl	$129320, %eax
	je	.LBB13_173
	jmp	.LBB13_494
.LBB13_494:
	.loc	4 0 5
	movl	4(%rsp), %eax
	.loc	4 80 5
	subl	$129321, %eax
	je	.LBB13_73
	jmp	.LBB13_495
.LBB13_495:
	.loc	4 0 5
	movl	4(%rsp), %eax
	.loc	4 80 5
	subl	$129322, %eax
	je	.LBB13_95
	jmp	.LBB13_496
.LBB13_496:
	.loc	4 0 5
	movl	4(%rsp), %eax
	.loc	4 80 5
	subl	$129323, %eax
	je	.LBB13_154
	jmp	.LBB13_497
.LBB13_497:
	.loc	4 0 5
	movl	4(%rsp), %eax
	.loc	4 80 5
	subl	$129324, %eax
	je	.LBB13_184
	jmp	.LBB13_498
.LBB13_498:
	.loc	4 0 5
	movl	4(%rsp), %eax
	.loc	4 80 5
	subl	$129325, %eax
	je	.LBB13_83
	jmp	.LBB13_499
.LBB13_499:
	.loc	4 0 5
	movl	4(%rsp), %eax
	.loc	4 80 5
	subl	$129326, %eax
	je	.LBB13_248
	jmp	.LBB13_500
.LBB13_500:
	.loc	4 0 5
	movl	4(%rsp), %eax
	.loc	4 80 5
	subl	$129327, %eax
	je	.LBB13_223
	jmp	.LBB13_501
.LBB13_501:
	.loc	4 0 5
	movl	4(%rsp), %eax
	.loc	4 80 5
	subl	$129330, %eax
	je	.LBB13_211
	jmp	.LBB13_502
.LBB13_502:
	.loc	4 0 5
	movl	4(%rsp), %eax
	.loc	4 80 5
	subl	$129335, %eax
	je	.LBB13_61
	jmp	.LBB13_503
.LBB13_503:
	.loc	4 0 5
	movl	4(%rsp), %eax
	.loc	4 80 5
	subl	$129344, %eax
	je	.LBB13_239
	jmp	.LBB13_504
.LBB13_504:
	.loc	4 0 5
	movl	4(%rsp), %eax
	.loc	4 80 5
	subl	$129346, %eax
	je	.LBB13_257
	jmp	.LBB13_505
.LBB13_505:
	.loc	4 0 5
	movl	4(%rsp), %eax
	.loc	4 80 5
	subl	$129392, %eax
	je	.LBB13_38
	jmp	.LBB13_506
.LBB13_506:
	.loc	4 0 5
	movl	4(%rsp), %eax
	.loc	4 80 5
	subl	$129395, %eax
	je	.LBB13_97
	jmp	.LBB13_507
.LBB13_507:
	.loc	4 0 5
	movl	4(%rsp), %eax
	.loc	4 80 5
	subl	$129396, %eax
	je	.LBB13_194
	jmp	.LBB13_508
.LBB13_508:
	.loc	4 0 5
	movl	4(%rsp), %eax
	.loc	4 80 5
	subl	$129397, %eax
	je	.LBB13_250
	jmp	.LBB13_509
.LBB13_509:
	.loc	4 0 5
	movl	4(%rsp), %eax
	.loc	4 80 5
	subl	$129402, %eax
	je	.LBB13_116
	jmp	.LBB13_510
.LBB13_510:
	.loc	4 0 5
	movl	4(%rsp), %eax
	.loc	4 80 5
	subl	$129419, %eax
	je	.LBB13_203
	jmp	.LBB13_511
.LBB13_511:
	.loc	4 0 5
	movl	4(%rsp), %eax
	.loc	4 80 5
	subl	$129488, %eax
	je	.LBB13_217
	jmp	.LBB13_512
.LBB13_512:
	.loc	4 0 5
	movl	4(%rsp), %eax
	.loc	4 80 5
	subl	$129505, %eax
	je	.LBB13_164
	jmp	.LBB13_513
.LBB13_513:
	.loc	4 0 5
	movl	4(%rsp), %eax
	.loc	4 80 5
	subl	$129680, %eax
	je	.LBB13_3
	jmp	.LBB13_1
.LBB13_1:
	movq	$0, 8(%rsp)
	jmp	.LBB13_258
.LBB13_2:
	movq	$0, 16(%rsp)
	movq	$1, 8(%rsp)
	jmp	.LBB13_258
.LBB13_3:
	movq	$4, 16(%rsp)
	movq	$1, 8(%rsp)
	jmp	.LBB13_258
.LBB13_4:
	movq	$8, 16(%rsp)
	movq	$1, 8(%rsp)
	jmp	.LBB13_258
.LBB13_5:
	movq	$11, 16(%rsp)
	movq	$1, 8(%rsp)
	jmp	.LBB13_258
.LBB13_6:
	movq	$15, 16(%rsp)
	movq	$1, 8(%rsp)
	jmp	.LBB13_258
.LBB13_7:
	movq	$19, 16(%rsp)
	movq	$1, 8(%rsp)
	jmp	.LBB13_258
.LBB13_8:
	movq	$23, 16(%rsp)
	movq	$1, 8(%rsp)
	jmp	.LBB13_258
.LBB13_9:
	movq	$27, 16(%rsp)
	movq	$1, 8(%rsp)
	jmp	.LBB13_258
.LBB13_10:
	movq	$31, 16(%rsp)
	movq	$1, 8(%rsp)
	jmp	.LBB13_258
.LBB13_11:
	movq	$35, 16(%rsp)
	movq	$1, 8(%rsp)
	jmp	.LBB13_258
.LBB13_12:
	movq	$39, 16(%rsp)
	movq	$1, 8(%rsp)
	jmp	.LBB13_258
.LBB13_13:
	movq	$43, 16(%rsp)
	movq	$1, 8(%rsp)
	jmp	.LBB13_258
.LBB13_14:
	movq	$47, 16(%rsp)
	movq	$1, 8(%rsp)
	jmp	.LBB13_258
.LBB13_15:
	movq	$51, 16(%rsp)
	movq	$1, 8(%rsp)
	jmp	.LBB13_258
.LBB13_16:
	movq	$55, 16(%rsp)
	movq	$1, 8(%rsp)
	jmp	.LBB13_258
.LBB13_17:
	movq	$59, 16(%rsp)
	movq	$1, 8(%rsp)
	jmp	.LBB13_258
.LBB13_18:
	movq	$63, 16(%rsp)
	movq	$1, 8(%rsp)
	jmp	.LBB13_258
.LBB13_19:
	movq	$67, 16(%rsp)
	movq	$1, 8(%rsp)
	jmp	.LBB13_258
.LBB13_20:
	movq	$70, 16(%rsp)
	movq	$1, 8(%rsp)
	jmp	.LBB13_258
.LBB13_21:
	movq	$74, 16(%rsp)
	movq	$1, 8(%rsp)
	jmp	.LBB13_258
.LBB13_22:
	movq	$78, 16(%rsp)
	movq	$1, 8(%rsp)
	jmp	.LBB13_258
.LBB13_23:
	movq	$82, 16(%rsp)
	movq	$1, 8(%rsp)
	jmp	.LBB13_258
.LBB13_24:
	movq	$86, 16(%rsp)
	movq	$1, 8(%rsp)
	jmp	.LBB13_258
.LBB13_25:
	movq	$90, 16(%rsp)
	movq	$1, 8(%rsp)
	jmp	.LBB13_258
.LBB13_26:
	movq	$93, 16(%rsp)
	movq	$1, 8(%rsp)
	jmp	.LBB13_258
.LBB13_27:
	movq	$97, 16(%rsp)
	movq	$1, 8(%rsp)
	jmp	.LBB13_258
.LBB13_28:
	movq	$101, 16(%rsp)
	movq	$1, 8(%rsp)
	jmp	.LBB13_258
.LBB13_29:
	movq	$105, 16(%rsp)
	movq	$1, 8(%rsp)
	jmp	.LBB13_258
.LBB13_30:
	movq	$109, 16(%rsp)
	movq	$1, 8(%rsp)
	jmp	.LBB13_258
.LBB13_31:
	movq	$113, 16(%rsp)
	movq	$1, 8(%rsp)
	jmp	.LBB13_258
.LBB13_32:
	movq	$117, 16(%rsp)
	movq	$1, 8(%rsp)
	jmp	.LBB13_258
.LBB13_33:
	movq	$121, 16(%rsp)
	movq	$1, 8(%rsp)
	jmp	.LBB13_258
.LBB13_34:
	movq	$125, 16(%rsp)
	movq	$1, 8(%rsp)
	jmp	.LBB13_258
.LBB13_35:
	movq	$129, 16(%rsp)
	movq	$1, 8(%rsp)
	jmp	.LBB13_258
.LBB13_36:
	movq	$133, 16(%rsp)
	movq	$1, 8(%rsp)
	jmp	.LBB13_258
.LBB13_37:
	movq	$137, 16(%rsp)
	movq	$1, 8(%rsp)
	jmp	.LBB13_258
.LBB13_38:
	movq	$141, 16(%rsp)
	movq	$1, 8(%rsp)
	jmp	.LBB13_258
.LBB13_39:
	movq	$145, 16(%rsp)
	movq	$1, 8(%rsp)
	jmp	.LBB13_258
.LBB13_40:
	movq	$149, 16(%rsp)
	movq	$1, 8(%rsp)
	jmp	.LBB13_258
.LBB13_41:
	movq	$153, 16(%rsp)
	movq	$1, 8(%rsp)
	jmp	.LBB13_258
.LBB13_42:
	movq	$157, 16(%rsp)
	movq	$1, 8(%rsp)
	jmp	.LBB13_258
.LBB13_43:
	movq	$161, 16(%rsp)
	movq	$1, 8(%rsp)
	jmp	.LBB13_258
.LBB13_44:
	movq	$165, 16(%rsp)
	movq	$1, 8(%rsp)
	jmp	.LBB13_258
.LBB13_45:
	movq	$169, 16(%rsp)
	movq	$1, 8(%rsp)
	jmp	.LBB13_258
.LBB13_46:
	movq	$173, 16(%rsp)
	movq	$1, 8(%rsp)
	jmp	.LBB13_258
.LBB13_47:
	movq	$177, 16(%rsp)
	movq	$1, 8(%rsp)
	jmp	.LBB13_258
.LBB13_48:
	movq	$181, 16(%rsp)
	movq	$1, 8(%rsp)
	jmp	.LBB13_258
.LBB13_49:
	movq	$184, 16(%rsp)
	movq	$1, 8(%rsp)
	jmp	.LBB13_258
.LBB13_50:
	movq	$188, 16(%rsp)
	movq	$1, 8(%rsp)
	jmp	.LBB13_258
.LBB13_51:
	movq	$192, 16(%rsp)
	movq	$1, 8(%rsp)
	jmp	.LBB13_258
.LBB13_52:
	movq	$196, 16(%rsp)
	movq	$1, 8(%rsp)
	jmp	.LBB13_258
.LBB13_53:
	movq	$200, 16(%rsp)
	movq	$1, 8(%rsp)
	jmp	.LBB13_258
.LBB13_54:
	movq	$204, 16(%rsp)
	movq	$1, 8(%rsp)
	jmp	.LBB13_258
.LBB13_55:
	movq	$208, 16(%rsp)
	movq	$1, 8(%rsp)
	jmp	.LBB13_258
.LBB13_56:
	movq	$212, 16(%rsp)
	movq	$1, 8(%rsp)
	jmp	.LBB13_258
.LBB13_57:
	movq	$216, 16(%rsp)
	movq	$1, 8(%rsp)
	jmp	.LBB13_258
.LBB13_58:
	movq	$220, 16(%rsp)
	movq	$1, 8(%rsp)
	jmp	.LBB13_258
.LBB13_59:
	movq	$224, 16(%rsp)
	movq	$1, 8(%rsp)
	jmp	.LBB13_258
.LBB13_60:
	movq	$227, 16(%rsp)
	movq	$1, 8(%rsp)
	jmp	.LBB13_258
.LBB13_61:
	movq	$230, 16(%rsp)
	movq	$1, 8(%rsp)
	jmp	.LBB13_258
.LBB13_62:
	movq	$234, 16(%rsp)
	movq	$1, 8(%rsp)
	jmp	.LBB13_258
.LBB13_63:
	movq	$238, 16(%rsp)
	movq	$1, 8(%rsp)
	jmp	.LBB13_258
.LBB13_64:
	movq	$242, 16(%rsp)
	movq	$1, 8(%rsp)
	jmp	.LBB13_258
.LBB13_65:
	movq	$246, 16(%rsp)
	movq	$1, 8(%rsp)
	jmp	.LBB13_258
.LBB13_66:
	movq	$250, 16(%rsp)
	movq	$1, 8(%rsp)
	jmp	.LBB13_258
.LBB13_67:
	movq	$254, 16(%rsp)
	movq	$1, 8(%rsp)
	jmp	.LBB13_258
.LBB13_68:
	movq	$258, 16(%rsp)
	movq	$1, 8(%rsp)
	jmp	.LBB13_258
.LBB13_69:
	movq	$262, 16(%rsp)
	movq	$1, 8(%rsp)
	jmp	.LBB13_258
.LBB13_70:
	movq	$266, 16(%rsp)
	movq	$1, 8(%rsp)
	jmp	.LBB13_258
.LBB13_71:
	movq	$270, 16(%rsp)
	movq	$1, 8(%rsp)
	jmp	.LBB13_258
.LBB13_72:
	movq	$274, 16(%rsp)
	movq	$1, 8(%rsp)
	jmp	.LBB13_258
.LBB13_73:
	movq	$278, 16(%rsp)
	movq	$1, 8(%rsp)
	jmp	.LBB13_258
.LBB13_74:
	movq	$282, 16(%rsp)
	movq	$1, 8(%rsp)
	jmp	.LBB13_258
.LBB13_75:
	movq	$286, 16(%rsp)
	movq	$1, 8(%rsp)
	jmp	.LBB13_258
.LBB13_76:
	movq	$290, 16(%rsp)
	movq	$1, 8(%rsp)
	jmp	.LBB13_258
.LBB13_77:
	movq	$294, 16(%rsp)
	movq	$1, 8(%rsp)
	jmp	.LBB13_258
.LBB13_78:
	movq	$298, 16(%rsp)
	movq	$1, 8(%rsp)
	jmp	.LBB13_258
.LBB13_79:
	movq	$302, 16(%rsp)
	movq	$1, 8(%rsp)
	jmp	.LBB13_258
.LBB13_80:
	movq	$306, 16(%rsp)
	movq	$1, 8(%rsp)
	jmp	.LBB13_258
.LBB13_81:
	movq	$310, 16(%rsp)
	movq	$1, 8(%rsp)
	jmp	.LBB13_258
.LBB13_82:
	movq	$314, 16(%rsp)
	movq	$1, 8(%rsp)
	jmp	.LBB13_258
.LBB13_83:
	movq	$318, 16(%rsp)
	movq	$1, 8(%rsp)
	jmp	.LBB13_258
.LBB13_84:
	movq	$322, 16(%rsp)
	movq	$1, 8(%rsp)
	jmp	.LBB13_258
.LBB13_85:
	movq	$325, 16(%rsp)
	movq	$1, 8(%rsp)
	jmp	.LBB13_258
.LBB13_86:
	movq	$329, 16(%rsp)
	movq	$1, 8(%rsp)
	jmp	.LBB13_258
.LBB13_87:
	movq	$333, 16(%rsp)
	movq	$1, 8(%rsp)
	jmp	.LBB13_258
.LBB13_88:
	movq	$337, 16(%rsp)
	movq	$1, 8(%rsp)
	jmp	.LBB13_258
.LBB13_89:
	movq	$341, 16(%rsp)
	movq	$1, 8(%rsp)
	jmp	.LBB13_258
.LBB13_90:
	movq	$345, 16(%rsp)
	movq	$1, 8(%rsp)
	jmp	.LBB13_258
.LBB13_91:
	movq	$349, 16(%rsp)
	movq	$1, 8(%rsp)
	jmp	.LBB13_258
.LBB13_92:
	movq	$353, 16(%rsp)
	movq	$1, 8(%rsp)
	jmp	.LBB13_258
.LBB13_93:
	movq	$357, 16(%rsp)
	movq	$1, 8(%rsp)
	jmp	.LBB13_258
.LBB13_94:
	movq	$361, 16(%rsp)
	movq	$1, 8(%rsp)
	jmp	.LBB13_258
.LBB13_95:
	movq	$365, 16(%rsp)
	movq	$1, 8(%rsp)
	jmp	.LBB13_258
.LBB13_96:
	movq	$369, 16(%rsp)
	movq	$1, 8(%rsp)
	jmp	.LBB13_258
.LBB13_97:
	movq	$373, 16(%rsp)
	movq	$1, 8(%rsp)
	jmp	.LBB13_258
.LBB13_98:
	movq	$377, 16(%rsp)
	movq	$1, 8(%rsp)
	jmp	.LBB13_258
.LBB13_99:
	movq	$381, 16(%rsp)
	movq	$1, 8(%rsp)
	jmp	.LBB13_258
.LBB13_100:
	movq	$385, 16(%rsp)
	movq	$1, 8(%rsp)
	jmp	.LBB13_258
.LBB13_101:
	movq	$389, 16(%rsp)
	movq	$1, 8(%rsp)
	jmp	.LBB13_258
.LBB13_102:
	movq	$393, 16(%rsp)
	movq	$1, 8(%rsp)
	jmp	.LBB13_258
.LBB13_103:
	movq	$397, 16(%rsp)
	movq	$1, 8(%rsp)
	jmp	.LBB13_258
.LBB13_104:
	movq	$400, 16(%rsp)
	movq	$1, 8(%rsp)
	jmp	.LBB13_258
.LBB13_105:
	movq	$404, 16(%rsp)
	movq	$1, 8(%rsp)
	jmp	.LBB13_258
.LBB13_106:
	movq	$408, 16(%rsp)
	movq	$1, 8(%rsp)
	jmp	.LBB13_258
.LBB13_107:
	movq	$412, 16(%rsp)
	movq	$1, 8(%rsp)
	jmp	.LBB13_258
.LBB13_108:
	movq	$416, 16(%rsp)
	movq	$1, 8(%rsp)
	jmp	.LBB13_258
.LBB13_109:
	movq	$420, 16(%rsp)
	movq	$1, 8(%rsp)
	jmp	.LBB13_258
.LBB13_110:
	movq	$424, 16(%rsp)
	movq	$1, 8(%rsp)
	jmp	.LBB13_258
.LBB13_111:
	movq	$428, 16(%rsp)
	movq	$1, 8(%rsp)
	jmp	.LBB13_258
.LBB13_112:
	movq	$432, 16(%rsp)
	movq	$1, 8(%rsp)
	jmp	.LBB13_258
.LBB13_113:
	movq	$436, 16(%rsp)
	movq	$1, 8(%rsp)
	jmp	.LBB13_258
.LBB13_114:
	movq	$440, 16(%rsp)
	movq	$1, 8(%rsp)
	jmp	.LBB13_258
.LBB13_115:
	movq	$443, 16(%rsp)
	movq	$1, 8(%rsp)
	jmp	.LBB13_258
.LBB13_116:
	movq	$446, 16(%rsp)
	movq	$1, 8(%rsp)
	jmp	.LBB13_258
.LBB13_117:
	movq	$450, 16(%rsp)
	movq	$1, 8(%rsp)
	jmp	.LBB13_258
.LBB13_118:
	movq	$454, 16(%rsp)
	movq	$1, 8(%rsp)
	jmp	.LBB13_258
.LBB13_119:
	movq	$458, 16(%rsp)
	movq	$1, 8(%rsp)
	jmp	.LBB13_258
.LBB13_120:
	movq	$462, 16(%rsp)
	movq	$1, 8(%rsp)
	jmp	.LBB13_258
.LBB13_121:
	movq	$466, 16(%rsp)
	movq	$1, 8(%rsp)
	jmp	.LBB13_258
.LBB13_122:
	movq	$469, 16(%rsp)
	movq	$1, 8(%rsp)
	jmp	.LBB13_258
.LBB13_123:
	movq	$473, 16(%rsp)
	movq	$1, 8(%rsp)
	jmp	.LBB13_258
.LBB13_124:
	movq	$477, 16(%rsp)
	movq	$1, 8(%rsp)
	jmp	.LBB13_258
.LBB13_125:
	movq	$481, 16(%rsp)
	movq	$1, 8(%rsp)
	jmp	.LBB13_258
.LBB13_126:
	movq	$484, 16(%rsp)
	movq	$1, 8(%rsp)
	jmp	.LBB13_258
.LBB13_127:
	movq	$488, 16(%rsp)
	movq	$1, 8(%rsp)
	jmp	.LBB13_258
.LBB13_128:
	movq	$492, 16(%rsp)
	movq	$1, 8(%rsp)
	jmp	.LBB13_258
.LBB13_129:
	movq	$496, 16(%rsp)
	movq	$1, 8(%rsp)
	jmp	.LBB13_258
.LBB13_130:
	movq	$499, 16(%rsp)
	movq	$1, 8(%rsp)
	jmp	.LBB13_258
.LBB13_131:
	movq	$503, 16(%rsp)
	movq	$1, 8(%rsp)
	jmp	.LBB13_258
.LBB13_132:
	movq	$507, 16(%rsp)
	movq	$1, 8(%rsp)
	jmp	.LBB13_258
.LBB13_133:
	movq	$511, 16(%rsp)
	movq	$1, 8(%rsp)
	jmp	.LBB13_258
.LBB13_134:
	movq	$515, 16(%rsp)
	movq	$1, 8(%rsp)
	jmp	.LBB13_258
.LBB13_135:
	movq	$519, 16(%rsp)
	movq	$1, 8(%rsp)
	jmp	.LBB13_258
.LBB13_136:
	movq	$523, 16(%rsp)
	movq	$1, 8(%rsp)
	jmp	.LBB13_258
.LBB13_137:
	movq	$527, 16(%rsp)
	movq	$1, 8(%rsp)
	jmp	.LBB13_258
.LBB13_138:
	movq	$531, 16(%rsp)
	movq	$1, 8(%rsp)
	jmp	.LBB13_258
.LBB13_139:
	movq	$535, 16(%rsp)
	movq	$1, 8(%rsp)
	jmp	.LBB13_258
.LBB13_140:
	movq	$539, 16(%rsp)
	movq	$1, 8(%rsp)
	jmp	.LBB13_258
.LBB13_141:
	movq	$543, 16(%rsp)
	movq	$1, 8(%rsp)
	jmp	.LBB13_258
.LBB13_142:
	movq	$547, 16(%rsp)
	movq	$1, 8(%rsp)
	jmp	.LBB13_258
.LBB13_143:
	movq	$551, 16(%rsp)
	movq	$1, 8(%rsp)
	jmp	.LBB13_258
.LBB13_144:
	movq	$555, 16(%rsp)
	movq	$1, 8(%rsp)
	jmp	.LBB13_258
.LBB13_145:
	movq	$559, 16(%rsp)
	movq	$1, 8(%rsp)
	jmp	.LBB13_258
.LBB13_146:
	movq	$563, 16(%rsp)
	movq	$1, 8(%rsp)
	jmp	.LBB13_258
.LBB13_147:
	movq	$567, 16(%rsp)
	movq	$1, 8(%rsp)
	jmp	.LBB13_258
.LBB13_148:
	movq	$571, 16(%rsp)
	movq	$1, 8(%rsp)
	jmp	.LBB13_258
.LBB13_149:
	movq	$575, 16(%rsp)
	movq	$1, 8(%rsp)
	jmp	.LBB13_258
.LBB13_150:
	movq	$579, 16(%rsp)
	movq	$1, 8(%rsp)
	jmp	.LBB13_258
.LBB13_151:
	movq	$582, 16(%rsp)
	movq	$1, 8(%rsp)
	jmp	.LBB13_258
.LBB13_152:
	movq	$586, 16(%rsp)
	movq	$1, 8(%rsp)
	jmp	.LBB13_258
.LBB13_153:
	movq	$589, 16(%rsp)
	movq	$1, 8(%rsp)
	jmp	.LBB13_258
.LBB13_154:
	movq	$593, 16(%rsp)
	movq	$1, 8(%rsp)
	jmp	.LBB13_258
.LBB13_155:
	movq	$597, 16(%rsp)
	movq	$1, 8(%rsp)
	jmp	.LBB13_258
.LBB13_156:
	movq	$601, 16(%rsp)
	movq	$1, 8(%rsp)
	jmp	.LBB13_258
.LBB13_157:
	movq	$605, 16(%rsp)
	movq	$1, 8(%rsp)
	jmp	.LBB13_258
.LBB13_158:
	movq	$609, 16(%rsp)
	movq	$1, 8(%rsp)
	jmp	.LBB13_258
.LBB13_159:
	movq	$613, 16(%rsp)
	movq	$1, 8(%rsp)
	jmp	.LBB13_258
.LBB13_160:
	movq	$617, 16(%rsp)
	movq	$1, 8(%rsp)
	jmp	.LBB13_258
.LBB13_161:
	movq	$621, 16(%rsp)
	movq	$1, 8(%rsp)
	jmp	.LBB13_258
.LBB13_162:
	movq	$625, 16(%rsp)
	movq	$1, 8(%rsp)
	jmp	.LBB13_258
.LBB13_163:
	movq	$629, 16(%rsp)
	movq	$1, 8(%rsp)
	jmp	.LBB13_258
.LBB13_164:
	movq	$633, 16(%rsp)
	movq	$1, 8(%rsp)
	jmp	.LBB13_258
.LBB13_165:
	movq	$637, 16(%rsp)
	movq	$1, 8(%rsp)
	jmp	.LBB13_258
.LBB13_166:
	movq	$641, 16(%rsp)
	movq	$1, 8(%rsp)
	jmp	.LBB13_258
.LBB13_167:
	movq	$644, 16(%rsp)
	movq	$1, 8(%rsp)
	jmp	.LBB13_258
.LBB13_168:
	movq	$648, 16(%rsp)
	movq	$1, 8(%rsp)
	jmp	.LBB13_258
.LBB13_169:
	movq	$652, 16(%rsp)
	movq	$1, 8(%rsp)
	jmp	.LBB13_258
.LBB13_170:
	movq	$655, 16(%rsp)
	movq	$1, 8(%rsp)
	jmp	.LBB13_258
.LBB13_171:
	movq	$658, 16(%rsp)
	movq	$1, 8(%rsp)
	jmp	.LBB13_258
.LBB13_172:
	movq	$662, 16(%rsp)
	movq	$1, 8(%rsp)
	jmp	.LBB13_258
.LBB13_173:
	movq	$666, 16(%rsp)
	movq	$1, 8(%rsp)
	jmp	.LBB13_258
.LBB13_174:
	movq	$670, 16(%rsp)
	movq	$1, 8(%rsp)
	jmp	.LBB13_258
.LBB13_175:
	movq	$674, 16(%rsp)
	movq	$1, 8(%rsp)
	jmp	.LBB13_258
.LBB13_176:
	movq	$678, 16(%rsp)
	movq	$1, 8(%rsp)
	jmp	.LBB13_258
.LBB13_177:
	movq	$682, 16(%rsp)
	movq	$1, 8(%rsp)
	jmp	.LBB13_258
.LBB13_178:
	movq	$686, 16(%rsp)
	movq	$1, 8(%rsp)
	jmp	.LBB13_258
.LBB13_179:
	movq	$690, 16(%rsp)
	movq	$1, 8(%rsp)
	jmp	.LBB13_258
.LBB13_180:
	movq	$694, 16(%rsp)
	movq	$1, 8(%rsp)
	jmp	.LBB13_258
.LBB13_181:
	movq	$698, 16(%rsp)
	movq	$1, 8(%rsp)
	jmp	.LBB13_258
.LBB13_182:
	movq	$702, 16(%rsp)
	movq	$1, 8(%rsp)
	jmp	.LBB13_258
.LBB13_183:
	movq	$706, 16(%rsp)
	movq	$1, 8(%rsp)
	jmp	.LBB13_258
.LBB13_184:
	movq	$710, 16(%rsp)
	movq	$1, 8(%rsp)
	jmp	.LBB13_258
.LBB13_185:
	movq	$714, 16(%rsp)
	movq	$1, 8(%rsp)
	jmp	.LBB13_258
.LBB13_186:
	movq	$717, 16(%rsp)
	movq	$1, 8(%rsp)
	jmp	.LBB13_258
.LBB13_187:
	movq	$721, 16(%rsp)
	movq	$1, 8(%rsp)
	jmp	.LBB13_258
.LBB13_188:
	movq	$725, 16(%rsp)
	movq	$1, 8(%rsp)
	jmp	.LBB13_258
.LBB13_189:
	movq	$729, 16(%rsp)
	movq	$1, 8(%rsp)
	jmp	.LBB13_258
.LBB13_190:
	movq	$733, 16(%rsp)
	movq	$1, 8(%rsp)
	jmp	.LBB13_258
.LBB13_191:
	movq	$737, 16(%rsp)
	movq	$1, 8(%rsp)
	jmp	.LBB13_258
.LBB13_192:
	movq	$741, 16(%rsp)
	movq	$1, 8(%rsp)
	jmp	.LBB13_258
.LBB13_193:
	movq	$745, 16(%rsp)
	movq	$1, 8(%rsp)
	jmp	.LBB13_258
.LBB13_194:
	movq	$749, 16(%rsp)
	movq	$1, 8(%rsp)
	jmp	.LBB13_258
.LBB13_195:
	movq	$753, 16(%rsp)
	movq	$1, 8(%rsp)
	jmp	.LBB13_258
.LBB13_196:
	movq	$756, 16(%rsp)
	movq	$1, 8(%rsp)
	jmp	.LBB13_258
.LBB13_197:
	movq	$759, 16(%rsp)
	movq	$1, 8(%rsp)
	jmp	.LBB13_258
.LBB13_198:
	movq	$762, 16(%rsp)
	movq	$1, 8(%rsp)
	jmp	.LBB13_258
.LBB13_199:
	movq	$766, 16(%rsp)
	movq	$1, 8(%rsp)
	jmp	.LBB13_258
.LBB13_200:
	movq	$770, 16(%rsp)
	movq	$1, 8(%rsp)
	jmp	.LBB13_258
.LBB13_201:
	movq	$773, 16(%rsp)
	movq	$1, 8(%rsp)
	jmp	.LBB13_258
.LBB13_202:
	movq	$777, 16(%rsp)
	movq	$1, 8(%rsp)
	jmp	.LBB13_258
.LBB13_203:
	movq	$781, 16(%rsp)
	movq	$1, 8(%rsp)
	jmp	.LBB13_258
.LBB13_204:
	movq	$785, 16(%rsp)
	movq	$1, 8(%rsp)
	jmp	.LBB13_258
.LBB13_205:
	movq	$789, 16(%rsp)
	movq	$1, 8(%rsp)
	jmp	.LBB13_258
.LBB13_206:
	movq	$793, 16(%rsp)
	movq	$1, 8(%rsp)
	jmp	.LBB13_258
.LBB13_207:
	movq	$796, 16(%rsp)
	movq	$1, 8(%rsp)
	jmp	.LBB13_258
.LBB13_208:
	movq	$800, 16(%rsp)
	movq	$1, 8(%rsp)
	jmp	.LBB13_258
.LBB13_209:
	movq	$804, 16(%rsp)
	movq	$1, 8(%rsp)
	jmp	.LBB13_258
.LBB13_210:
	movq	$808, 16(%rsp)
	movq	$1, 8(%rsp)
	jmp	.LBB13_258
.LBB13_211:
	movq	$812, 16(%rsp)
	movq	$1, 8(%rsp)
	jmp	.LBB13_258
.LBB13_212:
	movq	$816, 16(%rsp)
	movq	$1, 8(%rsp)
	jmp	.LBB13_258
.LBB13_213:
	movq	$820, 16(%rsp)
	movq	$1, 8(%rsp)
	jmp	.LBB13_258
.LBB13_214:
	movq	$824, 16(%rsp)
	movq	$1, 8(%rsp)
	jmp	.LBB13_258
.LBB13_215:
	movq	$828, 16(%rsp)
	movq	$1, 8(%rsp)
	jmp	.LBB13_258
.LBB13_216:
	movq	$832, 16(%rsp)
	movq	$1, 8(%rsp)
	jmp	.LBB13_258
.LBB13_217:
	movq	$836, 16(%rsp)
	movq	$1, 8(%rsp)
	jmp	.LBB13_258
.LBB13_218:
	movq	$840, 16(%rsp)
	movq	$1, 8(%rsp)
	jmp	.LBB13_258
.LBB13_219:
	movq	$844, 16(%rsp)
	movq	$1, 8(%rsp)
	jmp	.LBB13_258
.LBB13_220:
	movq	$848, 16(%rsp)
	movq	$1, 8(%rsp)
	jmp	.LBB13_258
.LBB13_221:
	movq	$852, 16(%rsp)
	movq	$1, 8(%rsp)
	jmp	.LBB13_258
.LBB13_222:
	movq	$856, 16(%rsp)
	movq	$1, 8(%rsp)
	jmp	.LBB13_258
.LBB13_223:
	movq	$860, 16(%rsp)
	movq	$1, 8(%rsp)
	jmp	.LBB13_258
.LBB13_224:
	movq	$864, 16(%rsp)
	movq	$1, 8(%rsp)
	jmp	.LBB13_258
.LBB13_225:
	movq	$868, 16(%rsp)
	movq	$1, 8(%rsp)
	jmp	.LBB13_258
.LBB13_226:
	movq	$871, 16(%rsp)
	movq	$1, 8(%rsp)
	jmp	.LBB13_258
.LBB13_227:
	movq	$875, 16(%rsp)
	movq	$1, 8(%rsp)
	jmp	.LBB13_258
.LBB13_228:
	movq	$879, 16(%rsp)
	movq	$1, 8(%rsp)
	jmp	.LBB13_258
.LBB13_229:
	movq	$883, 16(%rsp)
	movq	$1, 8(%rsp)
	jmp	.LBB13_258
.LBB13_230:
	movq	$887, 16(%rsp)
	movq	$1, 8(%rsp)
	jmp	.LBB13_258
.LBB13_231:
	movq	$891, 16(%rsp)
	movq	$1, 8(%rsp)
	jmp	.LBB13_258
.LBB13_232:
	movq	$895, 16(%rsp)
	movq	$1, 8(%rsp)
	jmp	.LBB13_258
.LBB13_233:
	movq	$899, 16(%rsp)
	movq	$1, 8(%rsp)
	jmp	.LBB13_258
.LBB13_234:
	movq	$902, 16(%rsp)
	movq	$1, 8(%rsp)
	jmp	.LBB13_258
.LBB13_235:
	movq	$906, 16(%rsp)
	movq	$1, 8(%rsp)
	jmp	.LBB13_258
.LBB13_236:
	movq	$910, 16(%rsp)
	movq	$1, 8(%rsp)
	jmp	.LBB13_258
.LBB13_237:
	movq	$914, 16(%rsp)
	movq	$1, 8(%rsp)
	jmp	.LBB13_258
.LBB13_238:
	movq	$918, 16(%rsp)
	movq	$1, 8(%rsp)
	jmp	.LBB13_258
.LBB13_239:
	movq	$922, 16(%rsp)
	movq	$1, 8(%rsp)
	jmp	.LBB13_258
.LBB13_240:
	movq	$926, 16(%rsp)
	movq	$1, 8(%rsp)
	jmp	.LBB13_258
.LBB13_241:
	movq	$930, 16(%rsp)
	movq	$1, 8(%rsp)
	jmp	.LBB13_258
.LBB13_242:
	movq	$934, 16(%rsp)
	movq	$1, 8(%rsp)
	jmp	.LBB13_258
.LBB13_243:
	movq	$938, 16(%rsp)
	movq	$1, 8(%rsp)
	jmp	.LBB13_258
.LBB13_244:
	movq	$942, 16(%rsp)
	movq	$1, 8(%rsp)
	jmp	.LBB13_258
.LBB13_245:
	movq	$946, 16(%rsp)
	movq	$1, 8(%rsp)
	jmp	.LBB13_258
.LBB13_246:
	movq	$950, 16(%rsp)
	movq	$1, 8(%rsp)
	jmp	.LBB13_258
.LBB13_247:
	movq	$954, 16(%rsp)
	movq	$1, 8(%rsp)
	jmp	.LBB13_258
.LBB13_248:
	movq	$958, 16(%rsp)
	movq	$1, 8(%rsp)
	jmp	.LBB13_258
.LBB13_249:
	movq	$962, 16(%rsp)
	movq	$1, 8(%rsp)
	jmp	.LBB13_258
.LBB13_250:
	movq	$966, 16(%rsp)
	movq	$1, 8(%rsp)
	jmp	.LBB13_258
.LBB13_251:
	movq	$970, 16(%rsp)
	movq	$1, 8(%rsp)
	jmp	.LBB13_258
.LBB13_252:
	movq	$974, 16(%rsp)
	movq	$1, 8(%rsp)
	jmp	.LBB13_258
.LBB13_253:
	movq	$978, 16(%rsp)
	movq	$1, 8(%rsp)
	jmp	.LBB13_258
.LBB13_254:
	movq	$982, 16(%rsp)
	movq	$1, 8(%rsp)
	jmp	.LBB13_258
.LBB13_255:
	movq	$986, 16(%rsp)
	movq	$1, 8(%rsp)
	jmp	.LBB13_258
.LBB13_256:
	movq	$990, 16(%rsp)
	movq	$1, 8(%rsp)
	jmp	.LBB13_258
.LBB13_257:
	movq	$994, 16(%rsp)
	movq	$1, 8(%rsp)
.LBB13_258:
	.loc	4 81 5 is_stmt 1
	movq	8(%rsp), %rax
	movq	16(%rsp), %rdx
	addq	$32, %rsp
	.cfi_def_cfa_offset 8
	retq
.Ltmp30:
.Lfunc_end13:
	.size	_ZN66_$LT$rust_base256utf8..Emoji$u20$as$u20$rust_base256utf8..Base$GT$9get_index17h7f8a037123a5ac50E, .Lfunc_end13-_ZN66_$LT$rust_base256utf8..Emoji$u20$as$u20$rust_base256utf8..Base$GT$9get_index17h7f8a037123a5ac50E
	.cfi_endproc

	.type	.L__unnamed_11,@object
	.section	.rodata..L__unnamed_11,"a",@progbits
.L__unnamed_11:
	.ascii	"invalid args"
	.size	.L__unnamed_11, 12

	.type	.L__unnamed_3,@object
	.section	.data.rel.ro..L__unnamed_3,"aw",@progbits
	.p2align	3
.L__unnamed_3:
	.quad	.L__unnamed_11
	.asciz	"\f\000\000\000\000\000\000"
	.size	.L__unnamed_3, 16

	.type	.L__unnamed_4,@object
	.section	.rodata..L__unnamed_4,"a",@progbits
	.p2align	3
.L__unnamed_4:
	.size	.L__unnamed_4, 0

	.type	.L__unnamed_12,@object
	.section	.rodata..L__unnamed_12,"a",@progbits
.L__unnamed_12:
	.ascii	"/rustc/cb121987158d69bb894ba1bcc21dc45d1e0a488f/library/core/src/fmt/mod.rs"
	.size	.L__unnamed_12, 75

	.type	.L__unnamed_5,@object
	.section	.data.rel.ro..L__unnamed_5,"aw",@progbits
	.p2align	3
.L__unnamed_5:
	.quad	.L__unnamed_12
	.asciz	"K\000\000\000\000\000\000\000\206\001\000\000\r\000\000"
	.size	.L__unnamed_5, 24

	.type	.L__unnamed_13,@object
	.section	.rodata..L__unnamed_13,"a",@progbits
.L__unnamed_13:
	.ascii	" at index "
	.size	.L__unnamed_13, 10

	.type	.L__unnamed_14,@object
	.section	.rodata..L__unnamed_14,"a",@progbits
.L__unnamed_14:
	.ascii	" is not part of the alphabet"
	.size	.L__unnamed_14, 28

	.type	.L__unnamed_6,@object
	.section	.data.rel.ro..L__unnamed_6,"aw",@progbits
	.p2align	3
.L__unnamed_6:
	.quad	.L__unnamed_4
	.zero	8
	.quad	.L__unnamed_13
	.asciz	"\n\000\000\000\000\000\000"
	.quad	.L__unnamed_14
	.asciz	"\034\000\000\000\000\000\000"
	.size	.L__unnamed_6, 48

	.type	.L__unnamed_7,@object
	.section	.rodata..L__unnamed_7,"a",@progbits
.L__unnamed_7:
	.ascii	"DecodeError"
	.size	.L__unnamed_7, 11

	.type	.L__unnamed_8,@object
	.section	.rodata..L__unnamed_8,"a",@progbits
.L__unnamed_8:
	.ascii	"codepoint"
	.size	.L__unnamed_8, 9

	.type	.L__unnamed_1,@object
	.section	.data.rel.ro..L__unnamed_1,"aw",@progbits
	.p2align	3
.L__unnamed_1:
	.quad	_ZN4core3ptr29drop_in_place$LT$$RF$char$GT$17h5193d7a6c982f78cE
	.asciz	"\b\000\000\000\000\000\000\000\b\000\000\000\000\000\000"
	.quad	_ZN42_$LT$$RF$T$u20$as$u20$core..fmt..Debug$GT$3fmt17h8ebeec7a45ff44c9E
	.size	.L__unnamed_1, 32

	.type	.L__unnamed_9,@object
	.section	.rodata..L__unnamed_9,"a",@progbits
.L__unnamed_9:
	.ascii	"index"
	.size	.L__unnamed_9, 5

	.type	.L__unnamed_2,@object
	.section	.data.rel.ro..L__unnamed_2,"aw",@progbits
	.p2align	3
.L__unnamed_2:
	.quad	_ZN4core3ptr30drop_in_place$LT$$RF$usize$GT$17h3194d10dc037ce94E
	.asciz	"\b\000\000\000\000\000\000\000\b\000\000\000\000\000\000"
	.quad	_ZN42_$LT$$RF$T$u20$as$u20$core..fmt..Debug$GT$3fmt17hd83e5ae26767a2ecE
	.size	.L__unnamed_2, 32

	.type	.L__unnamed_10,@object
	.section	.rodata..L__unnamed_10,"a",@progbits
.L__unnamed_10:
	.ascii	"Emoji"
	.size	.L__unnamed_10, 5

	.type	__rustc_debug_gdb_scripts_section__,@object
	.section	.debug_gdb_scripts,"aMS",@progbits,1,unique,1
	.weak	__rustc_debug_gdb_scripts_section__
__rustc_debug_gdb_scripts_section__:
	.asciz	"\001gdb_load_rust_pretty_printers.py"
	.size	__rustc_debug_gdb_scripts_section__, 34

	.section	.data.rel.ro..L__unnamed_1,"aw",@progbits
.Lsec_end0:
	.section	.data.rel.ro..L__unnamed_2,"aw",@progbits
.Lsec_end1:
	.section	".text._ZN42_$LT$$RF$T$u20$as$u20$core..fmt..Debug$GT$3fmt17h8ebeec7a45ff44c9E","ax",@progbits
.Lsec_end2:
	.section	".text._ZN42_$LT$$RF$T$u20$as$u20$core..fmt..Debug$GT$3fmt17hd83e5ae26767a2ecE","ax",@progbits
.Lsec_end3:
	.section	.text._ZN4core3fmt10ArgumentV111new_display17h37ca8165f1c5980fE,"ax",@progbits
.Lsec_end4:
	.section	.text._ZN4core3fmt10ArgumentV111new_display17h72dd1873a91a4424E,"ax",@progbits
.Lsec_end5:
	.section	.text._ZN4core3fmt10ArgumentV13new17h1da49da530c7c862E,"ax",@progbits
.Lsec_end6:
	.section	.text._ZN4core3fmt10ArgumentV13new17hb2cfcab83855514eE,"ax",@progbits
.Lsec_end7:
	.section	".text._ZN4core3fmt3num52_$LT$impl$u20$core..fmt..Debug$u20$for$u20$usize$GT$3fmt17ha7b085304bbcd552E","ax",@progbits
.Lsec_end8:
	.section	.text._ZN4core3fmt9Arguments6new_v117h6b361a870a97b550E,"ax",@progbits
.Lsec_end9:
	.section	".text._ZN4core3ptr29drop_in_place$LT$$RF$char$GT$17h5193d7a6c982f78cE","ax",@progbits
.Lsec_end10:
	.section	".text._ZN4core3ptr30drop_in_place$LT$$RF$usize$GT$17h3194d10dc037ce94E","ax",@progbits
.Lsec_end11:
	.section	".text._ZN68_$LT$rust_base256utf8..DecodeError$u20$as$u20$core..fmt..Display$GT$3fmt17h325f1301a35a27afE","ax",@progbits
.Lsec_end12:
	.section	".text._ZN66_$LT$rust_base256utf8..DecodeError$u20$as$u20$core..fmt..Debug$GT$3fmt17h3319b6f230a68b33E","ax",@progbits
.Lsec_end13:
	.section	".text._ZN60_$LT$rust_base256utf8..Emoji$u20$as$u20$core..fmt..Debug$GT$3fmt17h066a23ea992ab5c0E","ax",@progbits
.Lsec_end14:
	.section	".text._ZN66_$LT$rust_base256utf8..Emoji$u20$as$u20$rust_base256utf8..Base$GT$9get_index17h7f8a037123a5ac50E","ax",@progbits
.Lsec_end15:
	.section	".note.GNU-stack","",@progbits